
main.elf:     file format elf32-avr

Sections:
Idx Name          Size      VMA       LMA       File off  Algn
  0 .text         0000666a  00000000  00000000  00000094  2**0
                  CONTENTS, ALLOC, LOAD, READONLY, CODE
  1 .data         00000062  00800060  0000666a  000066fe  2**0
                  CONTENTS, ALLOC, LOAD, DATA
  2 .bss          00000001  008000c2  008000c2  00006760  2**0
                  ALLOC
  3 .noinit       00000000  008000c3  008000c3  00006760  2**0
                  CONTENTS
  4 .eeprom       00000000  00810000  00810000  00006760  2**0
                  CONTENTS
  5 .stab         0000036c  00000000  00000000  00006760  2**2
                  CONTENTS, READONLY, DEBUGGING
  6 .stabstr      00000084  00000000  00000000  00006acc  2**0
                  CONTENTS, READONLY, DEBUGGING
  7 .debug_aranges 00000050  00000000  00000000  00006b50  2**0
                  CONTENTS, READONLY, DEBUGGING
  8 .debug_pubnames 00000204  00000000  00000000  00006ba0  2**0
                  CONTENTS, READONLY, DEBUGGING
  9 .debug_info   000009a6  00000000  00000000  00006da4  2**0
                  CONTENTS, READONLY, DEBUGGING
 10 .debug_abbrev 00000302  00000000  00000000  0000774a  2**0
                  CONTENTS, READONLY, DEBUGGING
 11 .debug_line   00000b74  00000000  00000000  00007a4c  2**0
                  CONTENTS, READONLY, DEBUGGING
 12 .debug_str    0000024c  00000000  00000000  000085c0  2**0
                  CONTENTS, READONLY, DEBUGGING
Disassembly of section .text:

00000000 <__vectors>:
       0:	0c 94 40 2d 	jmp	0x5a80 <__init>
       4:	0c 94 88 32 	jmp	0x6510 <__vector_1>
       8:	0c 94 5b 2d 	jmp	0x5ab6 <__bad_interrupt>
       c:	0c 94 5b 2d 	jmp	0x5ab6 <__bad_interrupt>
      10:	0c 94 5b 2d 	jmp	0x5ab6 <__bad_interrupt>
      14:	0c 94 5b 2d 	jmp	0x5ab6 <__bad_interrupt>
      18:	0c 94 5b 2d 	jmp	0x5ab6 <__bad_interrupt>
      1c:	0c 94 5b 2d 	jmp	0x5ab6 <__bad_interrupt>
      20:	0c 94 5b 2d 	jmp	0x5ab6 <__bad_interrupt>
      24:	0c 94 5b 2d 	jmp	0x5ab6 <__bad_interrupt>
      28:	0c 94 5b 2d 	jmp	0x5ab6 <__bad_interrupt>
      2c:	0c 94 5b 2d 	jmp	0x5ab6 <__bad_interrupt>
      30:	0c 94 5b 2d 	jmp	0x5ab6 <__bad_interrupt>
      34:	0c 94 5b 2d 	jmp	0x5ab6 <__bad_interrupt>
      38:	0c 94 5b 2d 	jmp	0x5ab6 <__bad_interrupt>
      3c:	0c 94 5b 2d 	jmp	0x5ab6 <__bad_interrupt>
      40:	0c 94 5b 2d 	jmp	0x5ab6 <__bad_interrupt>
      44:	0c 94 5b 2d 	jmp	0x5ab6 <__bad_interrupt>
      48:	0c 94 5b 2d 	jmp	0x5ab6 <__bad_interrupt>
      4c:	0c 94 5b 2d 	jmp	0x5ab6 <__bad_interrupt>
      50:	0c 94 5b 2d 	jmp	0x5ab6 <__bad_interrupt>

00000054 <__ctors_end>:
      54:	3a 04       	cpc	r3, r10
      56:	40 d0       	rcall	.+128    	; 0xd8 <__ctors_end+0x84>
      58:	12 14       	cp	r1, r2
      5a:	32 80       	ldd	r3, Z+2	; 0x02
      5c:	17 16       	cp	r1, r23
      5e:	18 04       	cpc	r1, r8
      60:	19 02       	muls	r17, r25
      62:	1a 7b       	andi	r17, 0xBA	; 186
      64:	03 06       	cpc	r0, r19
      66:	0c 00       	.word	0x000c	; ????
      68:	3e 00       	.word	0x003e	; ????
      6a:	70 00       	.word	0x0070	; ????
      6c:	71 00       	.word	0x0071	; ????
      6e:	72 11       	cpse	r23, r2
      70:	73 00       	.word	0x0073	; ????
      72:	a2 02       	muls	r26, r18
      74:	11 81       	ldd	r17, Z+1	; 0x01
      76:	7a 20       	and	r7, r10
      78:	7b 1c       	adc	r7, r11
      7a:	7c 28       	or	r7, r12
      7c:	7d 3c       	cpi	r23, 0xCD	; 205
      7e:	7e 55       	subi	r23, 0x5E	; 94
      80:	7f 68       	ori	r23, 0x8F	; 143
      82:	80 76       	andi	r24, 0x60	; 96
      84:	81 80       	ldd	r8, Z+1	; 0x01
      86:	82 88       	ldd	r8, Z+18	; 0x12
      88:	83 8f       	std	Z+27, r24	; 0x1b
      8a:	84 96       	adiw	r24, 0x24	; 36
      8c:	85 a3       	std	Z+37, r24	; 0x25
      8e:	86 af       	std	Z+62, r24	; 0x3e
      90:	87 c4       	rjmp	.+2318   	; 0x9a0 <__stack+0x141>
      92:	88 d7       	rcall	.+3856   	; 0xfa4 <__stack+0x745>
      94:	89 e8       	ldi	r24, 0x89	; 137
      96:	13 e0       	ldi	r17, 0x03	; 3
      98:	00 00       	nop
      9a:	10 00       	.word	0x0010	; ????
      9c:	0d 00       	.word	0x000d	; ????
      9e:	14 28       	or	r1, r4
      a0:	a5 05       	cpc	r26, r5
      a2:	ab 07       	cpc	r26, r27
      a4:	24 75       	andi	r18, 0x54	; 84
      a6:	25 63       	ori	r18, 0x35	; 53
      a8:	26 a5       	ldd	r18, Z+46	; 0x2e
      aa:	9f 78       	andi	r25, 0x8F	; 143
      ac:	a0 68       	ori	r26, 0x80	; 128
      ae:	a1 03       	fmuls	r18, r17
      b0:	a6 df       	rcall	.-180    	; 0xfffffffe <__eeprom_end+0xff7efffe>
      b2:	a7 df       	rcall	.-178    	; 0x2 <__zero_reg__+0x1>
      b4:	a8 f0       	brcs	.+42     	; 0xe0 <__ctors_end+0x8c>
      b6:	a9 90       	ld	r10, Y+
      b8:	aa 94       	dec	r10
      ba:	13 e5       	ldi	r17, 0x53	; 83
      bc:	0e 61       	ori	r16, 0x1E	; 30
      be:	0f 4b       	sbci	r16, 0xBF	; 191
      c0:	16 02       	muls	r17, r22
      c2:	1e 37       	cpi	r17, 0x7E	; 126
      c4:	21 02       	muls	r18, r17
      c6:	22 91       	ld	r18, -Z
      c8:	29 07       	cpc	r18, r25
      ca:	33 0b       	sbc	r19, r19
      cc:	35 0b       	sbc	r19, r21
      ce:	37 1d       	adc	r19, r7
      d0:	38 71       	andi	r19, 0x18	; 24
      d2:	39 2a       	or	r3, r25
      d4:	3c 78       	andi	r19, 0x8C	; 140
      d6:	4d 40       	sbci	r20, 0x0D	; 13
      d8:	4e 20       	and	r4, r14
      da:	69 00       	.word	0x0069	; ????
      dc:	6b 40       	sbci	r22, 0x0B	; 11
      de:	74 19       	sub	r23, r4
      e0:	8d 4f       	sbci	r24, 0xFD	; 253
      e2:	8e 00       	.word	0x008e	; ????
      e4:	8f 00       	.word	0x008f	; ????
      e6:	90 00       	.word	0x0090	; ????
      e8:	91 00       	.word	0x0091	; ????
      ea:	92 00       	.word	0x0092	; ????
      ec:	96 00       	.word	0x0096	; ????
      ee:	9a 80       	ldd	r9, Y+2	; 0x02
      f0:	b0 84       	ldd	r11, Z+8	; 0x08
      f2:	b1 0c       	add	r11, r1
      f4:	b2 0e       	add	r11, r18
      f6:	b3 82       	std	Z+3, r11	; 0x03
      f8:	b8 0a       	sbc	r11, r24
      fa:	43 14       	cp	r4, r3
      fc:	44 f0       	brlt	.+16     	; 0x10e <__ctors_end+0xba>
      fe:	45 34       	cpi	r20, 0x45	; 69
     100:	46 58       	subi	r20, 0x86	; 134
     102:	47 28       	or	r4, r7
     104:	48 3a       	cpi	r20, 0xA8	; 168
     106:	59 88       	ldd	r5, Y+17	; 0x11
     108:	5a 88       	ldd	r5, Y+18	; 0x12
     10a:	5b 44       	sbci	r21, 0x4B	; 75
     10c:	5c 67       	ori	r21, 0x7C	; 124
     10e:	5d 49       	sbci	r21, 0x9D	; 157
     110:	5e 0e       	add	r5, r30
     112:	64 04       	cpc	r6, r4
     114:	65 20       	and	r6, r5
     116:	66 05       	cpc	r22, r6
     118:	94 04       	cpc	r9, r4
     11a:	95 08       	sbc	r9, r5
     11c:	6c 0a       	sbc	r6, r28
     11e:	6d 55       	subi	r22, 0x5D	; 93
     120:	6e 11       	cpse	r22, r14
     122:	6f 9f       	mul	r22, r31
     124:	6a 40       	sbci	r22, 0x0A	; 10
     126:	01 40       	sbci	r16, 0x01	; 1
     128:	02 40       	sbci	r16, 0x02	; 2
     12a:	13 e7       	ldi	r17, 0x73	; 115
     12c:	15 00       	.word	0x0015	; ????
     12e:	4f 80       	ldd	r4, Y+7	; 0x07
     130:	50 80       	ld	r5, Z
     132:	51 00       	.word	0x0051	; ????
     134:	52 22       	and	r5, r18
     136:	53 5e       	subi	r21, 0xE3	; 227
     138:	54 80       	ldd	r5, Z+4	; 0x04
     13a:	58 9e       	mul	r5, r24
     13c:	41 08       	sbc	r4, r1
     13e:	3f 00       	.word	0x003f	; ????
     140:	75 05       	cpc	r23, r5
     142:	76 e1       	ldi	r23, 0x16	; 22
     144:	4c 00       	.word	0x004c	; ????
     146:	77 01       	movw	r14, r14
     148:	3d c2       	rjmp	.+1146   	; 0x5c4 <gImage+0x416>
     14a:	4b 09       	sbc	r20, r11
     14c:	c9 60       	ori	r28, 0x09	; 9
     14e:	41 38       	cpi	r20, 0x81	; 129
     150:	56 40       	sbci	r21, 0x06	; 6
     152:	34 11       	cpse	r19, r4
     154:	3b 02       	muls	r19, r27
     156:	a4 89       	ldd	r26, Z+20	; 0x14
     158:	96 00       	.word	0x0096	; ????
     15a:	97 30       	cpi	r25, 0x07	; 7
     15c:	98 20       	and	r9, r8
     15e:	99 30       	cpi	r25, 0x09	; 9
     160:	9a 84       	ldd	r9, Y+10	; 0x0a
     162:	9b 29       	or	r25, r11
     164:	9c 03       	fmulsu	r17, r20
     166:	9d 4c       	sbci	r25, 0xCD	; 205
     168:	9e 3f       	cpi	r25, 0xFE	; 254
     16a:	78 04       	cpc	r7, r8
     16c:	79 01       	movw	r14, r18
     16e:	c8 f0       	brcs	.+50     	; 0x1a2 <__ctors_end+0x14e>
     170:	79 0f       	add	r23, r25
     172:	c8 00       	.word	0x00c8	; ????
     174:	79 10       	cpse	r7, r9
     176:	c8 7e       	andi	r28, 0xE8	; 232
     178:	79 0a       	sbc	r7, r25
     17a:	c8 80       	ld	r12, Y
     17c:	79 0b       	sbc	r23, r25
     17e:	c8 01       	movw	r24, r16
     180:	79 0c       	add	r7, r9
     182:	c8 0f       	add	r28, r24
     184:	79 0d       	add	r23, r9
     186:	c8 20       	and	r12, r8
     188:	79 09       	sbc	r23, r9
     18a:	c8 80       	ld	r12, Y
     18c:	79 02       	muls	r23, r25
     18e:	c8 c0       	rjmp	.+400    	; 0x320 <gImage+0x172>
     190:	79 03       	fmul	r23, r17
     192:	c8 40       	sbci	r28, 0x08	; 8
     194:	79 05       	cpc	r23, r9
     196:	c8 30       	cpi	r28, 0x08	; 8
     198:	79 26       	eor	r7, r25
     19a:	09 03       	fmul	r16, r17
     19c:	3b 42       	sbci	r19, 0x2B	; 43
	...

000001ae <gImage>:
	...
     1ce:	00 20 00 00 00 20 00 21 00 02 00 02 00 02 00 23     . ... .!.......#
     1de:	08 64 00 01 00 01 00 00 00 00 00 61 00 00 00 20     .d.........a... 
	...
     21e:	00 20 00 00 00 20 00 00 84 30 7b cf 39 c7 00 00     . ... ...0{.9...
     22e:	00 01 08 42 00 01 00 00 00 00 00 00 00 00 00 00     ...B............
     23e:	00 00 00 20 00 00 00 00 00 00 08 20 00 00 00 00     ... ....... ....
     24e:	00 00 08 82 00 20 00 20 10 e1 00 40 00 20 00 40     ..... . ...@. .@
     25e:	00 00 00 00 08 21 00 00 08 22 00 01 00 01 00 00     .....!..."......
	...
     29a:	00 00 00 20 00 00 00 00 00 00 00 01 00 02 08 43     ... ...........C
     2aa:	00 02 00 01 00 01 10 a3 00 00 00 00 00 00 00 00     ................
	...
     2ee:	00 00 08 41 00 00 5a eb 4a 49 42 08 42 29 10 63     ...A..Z.JIB.B).c
     2fe:	00 01 08 41 00 00 00 00 00 20 00 20 08 61 00 00     ...A..... . .a..
	...
     316:	00 00 08 20 08 20 00 21 00 00 00 61 00 20 00 20     ... . .!...a. . 
     326:	00 20 08 a0 00 20 00 00 08 41 08 01 00 00 00 01     . ... ...A......
	...
     36a:	00 20 08 60 00 00 00 00 08 42 00 00 00 00 00 00     . .`.....B......
     37a:	00 00 00 00 00 20 00 20 08 61 00 00 00 00 00 21     ..... . .a.....!
	...
     3be:	00 20 10 82 63 2c 42 28 39 e7 4a 49 42 29 39 a7     . ..c,B(9.JIB)9.
     3ce:	00 00 10 81 00 00 00 00 00 00 00 00 00 00 00 00     ................
     3de:	00 01 00 01 10 83 00 00 00 00 00 00 00 02 00 02     ................
     3ee:	10 83 00 00 00 20 00 40 00 20 00 20 00 00 00 00     ..... .@. . ....
     3fe:	00 00 00 00 00 00 00 20 00 00 00 00 00 00 00 00     ....... ........
	...
     43a:	00 00 10 81 5a aa c6 17 08 20 00 00 00 20 08 60     ....Z.... ... .`
     44a:	08 80 00 40 00 00 00 00 00 00 00 00 00 00 00 00     ...@............
	...
     486:	00 00 08 41 00 00 00 00 31 a6 84 30 63 0c 42 08     ...A....1..0c.B.
     496:	29 66 21 04 31 a7 63 0c 00 20 00 00 00 20 00 20     )f!.1.c.. ... . 
     4a6:	00 00 00 00 00 01 08 02 00 01 00 01 00 01 00 00     ................
     4b6:	08 22 00 02 00 02 00 01 00 00 00 00 00 60 00 00     ."...........`..
     4c6:	18 c2 6b 2d 00 01 00 01 00 00 00 00 00 40 00 20     ..k-.........@. 
     4d6:	00 20 00 00 00 00 00 00 00 00 00 00 00 00 00 00     . ..............
	...
     506:	00 00 18 a2 08 00 c6 17 f7 be ff fe 73 8c 08 a0     ............s...
     516:	00 20 00 20 00 20 08 40 08 40 00 00 00 00 00 01     . . . .@.@......
	...
     542:	00 01 00 00 00 00 00 00 00 00 00 00 00 00 00 00     ................
	...
     55a:	00 00 42 08 7b ef 6b 6d 5a cb 42 28 29 45 29 66     ..B.{.kmZ.B()E)f
     56a:	10 81 5a eb 39 c6 08 40 00 00 00 00 00 21 08 22     ..Z.9..@.....!."
     57a:	00 02 00 02 00 02 10 83 00 01 00 01 00 02 10 43     ...............C
     58a:	00 01 18 83 08 41 ad 33 ff ff ff ff ff df 29 25     .....A.3......)%
     59a:	10 62 00 00 00 00 00 00 00 20 00 40 00 00 00 00     .b....... .@....
	...
     5d6:	00 00 62 ec ff ff ff ff f7 be ff fe e7 7b 52 e8     ..b..........{R.
     5e6:	3a 05 00 20 00 00 00 00 00 00 00 01 08 01 00 00     :.. ............
	...
     60e:	00 01 00 01 00 00 00 00 00 00 00 00 00 00 00 00     ................
	...
     62a:	4a 69 7b cf 73 ae 6b 4d 4a 69 4a 49 29 45 39 e7     Ji{.s.kMJiJI)E9.
     63a:	10 c2 39 e7 42 27 21 03 00 00 00 00 00 01 00 01     ..9.B'!.........
     64a:	00 01 00 01 00 01 00 00 00 00 20 a4 41 e8 6b 2c     .......... .A.k,
     65a:	ff fe ff fd ff fd ff 7b ff de ff df 49 e8 00 01     .......{....I...
     66a:	00 00 00 20 00 20 00 20 00 20 00 00 00 00 00 00     ... . . . ......
	...
     6a2:	00 00 00 21 a4 f4 ff df ff ff c6 5a f7 ff f7 ff     ...!.......Z....
     6b2:	ef be df 3b 84 4f 00 40 08 41 00 00 10 63 00 00     ...;.O.@.A...c..
	...
     6de:	00 01 00 00 00 00 00 00 00 00 00 00 00 00 00 00     ................
	...
     6f6:	08 61 6b 6d 8c 51 7b ef 6b 6d 4a 69 31 87 42 09     .akm.Q{.kmJi1.B.
     706:	29 45 39 c6 21 23 29 44 39 e7 4a 49 08 42 00 00     )E9.!#)D9.JI.B..
     716:	10 63 00 00 08 21 08 20 62 eb a4 d1 ce 16 ff fc     .c...!. b.......
     726:	ff da ff 99 ff 98 ff fa ff 58 ff 9b ff 9c 94 31     .........X.....1
     736:	00 00 00 00 00 00 00 20 00 40 00 20 00 00 00 00     ....... .@. ....
	...
     772:	39 e7 ef 9f f7 ff d6 fe 29 ca 74 13 e7 bf f7 ff     9.......).t.....
     782:	ef df f7 ff ce bb bd f8 00 00 00 00 08 41 00 00     .............A..
	...
     7c2:	08 41 18 e3 8c 71 8c 71 7b cf 73 ae 63 2d 52 6a     .A...q.q{.s.c-Rj
     7d2:	31 a7 31 a6 31 85 39 c6 29 65 21 24 21 24 6b 4d     1.1.1.9.)e!$!$kM
     7e2:	00 21 00 00 20 e3 bd d6 ce 78 ff fd ff fc ff fa     .!.. ....x......
     7f2:	ff b6 ff f7 ff f6 ff 32 e6 4f d5 f0 ff 37 ff fc     .......2.O...7..
     802:	ff bd 10 62 00 01 00 00 00 00 00 60 00 20 00 00     ...b.......`. ..
	...
     83e:	00 20 7c 31 f7 df ef ff 4a f0 21 8c 11 6c 19 6c     . |1....J.!..l.l
     84e:	6b f5 df 9f f7 ff ef df f7 ff ff ff 7c 11 00 20     k...........|.. 
     85e:	00 00 00 00 00 20 00 00 00 20 00 00 00 00 00 00     ..... ... ......
	...
     87a:	00 00 00 20 00 00 00 00 00 00 00 00 08 41 00 00     ... .........A..
     88a:	00 20 00 00 00 00 00 00 18 c3 ad 75 84 10 8c 71     . .........u...q
     89a:	7b cf 6b 4d 52 ab 42 09 31 86 29 65 31 a6 31 a5     {.kMR.B.1.)e1.1.
     8aa:	31 85 31 85 08 40 52 89 c6 17 ef 5b ef 5a ff fc     1.1..@R....[.Z..
     8ba:	ff fc ff f8 ff b4 f7 4f ff 2e e6 8b fe ec f6 8c     .......O........
     8ca:	c5 29 f6 d2 ff fa ff fd 20 c3 00 00 00 01 00 42     .)...... ......B
     8da:	00 00 00 61 00 00 00 00 00 00 00 00 00 00 00 00     ...a............
	...
     8fa:	00 00 00 20 00 00 00 00 00 00 00 00 00 00 08 61     ... ...........a
     90a:	00 20 00 20 f7 ff f7 ff be 7d 2a 0e 19 af 21 f1     . . .....}*...!.
     91a:	21 f1 11 8f 21 cf 74 77 c6 df ef bf f7 ff ff ff     !...!.tw........
     92a:	ff ff 52 eb 29 86 00 00 00 00 08 40 00 00 00 00     ..R.)......@....
     93a:	08 20 08 20 00 00 00 00 00 00 00 00 00 00 00 00     . . ............
	...
     956:	00 00 00 20 08 41 08 41 00 00 4a 69 94 92 94 b2     ... .A.A..Ji....
     966:	84 30 8c 51 7b af 5a ed 4a 4a 39 a7 31 a6 31 a6     .0.Q{.Z.JJ9.1.1.
     976:	31 a5 31 85 29 65 4a 48 10 a1 29 43 83 ed c6 14     1.1.)eJH..)C....
     986:	d6 b5 ce 53 de f2 de 8c de 68 ff 0a ff 4a f6 87     ...S.....h...J..
     996:	f6 68 ee 2a cd 49 ff 56 f7 38 ce 37 10 82 00 01     .h.*.I.V.8.7....
     9a6:	00 22 00 21 00 00 00 00 00 00 00 00 00 00 00 00     .".!............
	...
     9d2:	08 41 00 00 00 00 00 00 94 f2 f7 ff d7 5f 74 76     .A..........._tv
     9e2:	09 0c 21 f2 19 d2 19 d2 21 f2 09 6f 19 8d 19 6b     ..!.....!..o...k
     9f2:	53 2f ad d9 ff ff f7 ff ff ff e7 9f 6b af 10 c3     S/..........k...
     a02:	00 00 00 00 08 40 00 00 00 00 00 00 00 00 00 00     .....@..........
     a12:	00 00 00 20 00 20 00 20 00 20 00 00 00 00 00 20     ... . . . ..... 
     a22:	00 20 08 41 00 00 00 00 00 00 08 41 8c 51 9c d3     . .A.......A.Q..
     a32:	8c 71 9c d3 84 30 6b 6e 6b 2e 52 8b 39 c8 31 86     .q...0knk.R.9.1.
     a42:	31 86 31 a6 31 85 31 85 31 a5 29 64 21 02 18 e1     1.1.1.1.1.)d!...
     a52:	4a 65 8c 6c a5 4e bd cd bd a7 e6 87 ff 28 fe e6     Je.l.N.......(..
     a62:	fe 85 fe 65 ed c5 d5 27 ff 33 ff 99 ff fd 00 00     ...e...'.3......
     a72:	00 01 00 01 00 01 00 01 00 00 00 00 00 00 00 00     ................
	...
     a9a:	00 20 00 00 00 00 00 20 00 20 00 00 18 e3 f7 ff     . ..... . ......
     aaa:	f7 ff c6 bd 19 8b 00 cb 19 b1 11 92 11 b3 22 34     .............."4
     aba:	11 90 00 eb 6c 16 be 7d 5b 2e 3a 29 c6 59 ef ff     ....l..}[.:).Y..
     aca:	e7 bf f7 ff d6 dc be 39 00 00 00 00 00 20 08 40     .......9..... .@
     ada:	00 20 00 00 00 00 00 00 00 00 00 00 00 20 00 00     . ........... ..
     aea:	00 00 00 20 00 00 00 00 00 00 00 00 08 61 00 00     ... .........a..
     afa:	08 61 9c f3 9c d3 8c 71 94 b2 84 10 94 92 7b af     .a.....q......{.
     b0a:	62 ed 42 29 31 86 29 65 31 85 31 a6 39 a6 29 65     b.B)1.)e1.1.9.)e
     b1a:	39 e7 42 27 29 63 21 00 29 61 5a c5 ad 4c b5 25     9.B')c!.)aZ..L.%
     b2a:	d5 a4 fe e7 fe 84 fe 83 fe 84 e5 42 e5 87 ee 2e     ...........B....
     b3a:	ff f9 ff bc 4a 49 08 42 00 02 00 01 00 00 00 00     ....JI.B........
	...
     b66:	00 00 08 41 00 00 00 00 00 00 08 41 00 00 94 b2     ...A.......A....
     b76:	f7 ff df 7e ef ff e7 ff 8d 5d 09 4f 22 33 22 54     ...~.....].O"3"T
     b86:	11 b1 22 11 63 f6 df 9f e7 9f ff ff b5 b7 19 05     ..".c...........
     b96:	4a ee d7 5f ef df f7 ff e7 7f ff ff 8c 72 00 00     J.._.........r..
     ba6:	00 00 00 00 00 00 00 40 08 81 00 60 00 00 00 00     .......@...`....
	...
     bbe:	00 20 00 20 00 00 00 00 00 20 00 00 ad 55 9c d3     . . ..... ...U..
     bce:	ad 75 42 28 39 c7 5a cb 7b af 6b 4d 52 8a 39 e7     .uB(9.Z.{.kMR.9.
     bde:	31 86 31 85 31 86 31 86 42 28 29 65 31 65 39 c6     1.1.1.1.B()e1e9.
     bee:	39 c5 18 e0 18 e0 62 e4 ac a6 9b a0 cc e1 fe 86     9.....b.........
     bfe:	fe 44 fe 23 fe 05 d4 c3 d5 29 ff 76 ff bb ce 17     .D.#.....).v....
     c0e:	00 00 00 01 00 01 00 00 00 00 00 00 00 00 00 00     ................
	...
     c3a:	08 41 00 00 00 00 18 e3 e7 3d f7 ff ef bf 9d 79     .A.......=.....y
     c4a:	9d 9b c6 ff 95 9e 11 b0 01 2d 32 d3 1a 0f 3a d1     .........-2...:.
     c5a:	e7 ff f7 ff ff ff f7 9f df 1e 08 e8 19 6b 63 d4     .............kc.
     c6a:	ad db ef df f7 bf ff df f7 bf 63 0d 39 a7 08 41     ..........c.9..A
	...
     c82:	00 00 00 20 00 00 00 00 00 00 08 41 00 00 00 20     ... .......A... 
     c92:	00 00 10 a2 29 65 9c d3 9c f3 a5 14 4a 69 39 e7     ....)e......Ji9.
     ca2:	4a 49 52 ab 52 ab 52 8a 42 28 39 c6 31 a6 31 86     JIR.R.R.B(9.1.1.
     cb2:	31 86 39 a7 31 87 31 86 29 25 39 a6 42 06 29 42     1.9.1.1.)%9.B.)B
     cc2:	28 e0 ac 68 ab c2 92 c0 e4 e2 fe 04 fd a2 fe 06     (..h............
     cd2:	d4 82 dd 49 f6 93 ff fb de 99 08 21 00 00 00 00     ...I.......!....
     ce2:	08 41 00 00 00 00 00 00 00 00 00 00 00 00 00 00     .A..............
	...
     d06:	00 00 08 61 00 00 00 00 73 ae f7 9e f7 df a5 57     ...a....s......W
     d16:	95 17 a5 dc ae 3e ae 5f 32 d2 3b 13 9e 1e 8d 7b     .....>._2.;....{
     d26:	6c 35 ce ff e7 5f f7 df ff df ff df ad fd 42 d2     l5..._........B.
     d36:	11 4b 21 ac 5b 52 ce 7d ef 9f ff ff ff ff ce 7a     .K!.[R.}.......z
     d46:	7b cf 31 a7 08 61 00 00 00 00 08 61 00 00 00 20     {.1..a.....a... 
     d56:	00 00 00 00 10 82 00 00 63 2c 84 10 bd d7 ce 79     ........c,.....y
     d66:	a5 34 a5 14 7b cf 52 8a 4a 69 52 aa 4a 49 52 aa     .4..{.R.JiR.JIR.
     d76:	52 ca 4a 48 39 c6 31 86 31 87 31 87 31 88 29 27     R.JH9.1.1.1.1.)'
     d86:	39 c9 41 c9 39 87 31 86 29 44 41 83 a3 c9 bc 07     9.A.9.1.)DA.....
     d96:	9a c0 aa c0 f4 e2 fd a4 f5 23 ed 05 d4 e8 d5 6e     .........#.....n
     da6:	ff fb f7 7c 6b 2c 10 82 00 00 08 20 00 00 00 00     ...|k,..... ....
	...
     dda:	29 65 e7 5c ff ff ce fd 8c f7 74 55 84 f9 95 bd     )e.\......tU....
     dea:	a6 3f 9d fe 6c 98 8d 5a e7 ff c6 de d7 1e f7 df     .?..l..Z........
     dfa:	ff bf f7 7f ff df f7 ff 4b 11 11 29 7c 35 b5 db     ........K..)|5..
     e0a:	f7 ff be 1b b5 da f7 df ff ff ff ff e7 5e 9d 14     .............^..
     e1a:	42 49 08 61 00 00 00 00 00 00 00 00 39 c7 b5 96     BI.a........9...
     e2a:	b5 96 ff ff f7 be de db bd d8 84 10 a5 14 ad 54     ...............T
     e3a:	4a 28 62 eb 73 8d 6b 4c 73 8d 6b 6c 52 a9 39 c6     J(b.s.kLs.klR.9.
     e4a:	29 65 31 86 31 a7 39 a8 29 27 39 c9 39 a8 29 26     )e1.1.9.)'9.9.)&
     e5a:	31 66 31 85 41 63 8a c6 92 62 d4 66 9a 80 bb 20     1f1.Ac...b.f... 
     e6a:	fe 07 f4 a3 f5 07 cc 47 9b 66 ff 17 ff fd 7b ce     .......G.f....{.
     e7a:	00 00 10 61 00 00 00 00 00 00 00 00 00 00 00 00     ...a............
     e8a:	00 00 00 00 00 01 00 01 00 01 00 01 00 01 00 01     ................
     e9a:	00 00 00 00 00 01 00 00 00 00 08 81 00 20 6b cc     ............. k.
     eaa:	ff fd ef ff 6c 75 4b d4 43 74 3b 95 54 18 5c 58     ....luK.Ct;.T.\X
     eba:	53 f6 64 36 95 7a ad fb d6 fe d6 bc df 1e ff ff     S.d6.z..........
     eca:	f7 7f ef 5f ff ff ce 5a a5 56 e7 5f f7 ff f7 ff     ..._...Z.V._....
     eda:	c6 9d 32 0b 42 ae b6 3b f7 ff e7 7f ff ff ef 9e     ..2.B..;........
     eea:	a5 14 41 e7 00 00 ce 58 ff ff f7 9f ff df ff de     ..A....X........
     efa:	e7 3c f7 be ce 9c 94 d5 9c f5 a5 55 8c 90 9c d1     .<.........U....
     f0a:	7b 8c 83 ee 94 4f 83 ee 73 6c 5a ca 4a 28 31 a6     {....O..slZ.J(1.
     f1a:	31 86 31 87 29 66 31 a7 31 86 31 87 39 c6 31 85     1.1.)f1.1.1.9.1.
     f2a:	29 44 41 63 71 c1 9a 40 cc 44 c3 e1 cb e0 aa c0     )DAcq..@.D......
     f3a:	ec 44 fd 0a dc 29 8a 22 ee 33 ff fb d6 b8 29 64     .D...).".3....)d
     f4a:	00 01 00 01 00 00 00 00 00 00 00 00 00 00 00 00     ................
     f5a:	00 00 00 01 00 01 00 01 00 01 00 01 00 01 00 00     ................
     f6a:	00 00 00 00 08 61 00 00 00 00 19 23 f7 fe ef bd     .....a.....#....
     f7a:	be 9a 2a 8e 7d 5b 7d 5b 1a 71 12 31 22 b3 1a 30     ..*.}[}[.q.1"..0
     f8a:	43 54 85 1a a5 db d6 fe e7 5f e7 3e e7 5f ef 7f     CT......._.>._..
     f9a:	ff ff ff ff ff de ff df ff ff e7 7f e7 9f ef df     ................
     faa:	be 7d 53 30 21 aa 42 8d 9d 37 d6 dc d6 bb ef 3d     .}S0!.B..7.....=
     fba:	ff ff ff ff ff ff f7 9f ff bf f7 7c f7 9b e7 39     ...........|...9
     fca:	ad 74 9c f4 84 53 a5 36 9c f4 9c f2 ad 32 9c b1     .t...S.6.....2..
     fda:	94 70 94 70 84 0e 73 8c 63 0b 4a 69 39 e7 31 86     .p.p..s.c.Ji9.1.
     fea:	31 86 31 86 39 c7 31 86 31 a6 31 a5 31 85 21 23     1.1.9.1.1.1.1.!#
     ffa:	51 e4 79 e1 a2 c1 e5 07 dc e5 ab 20 b2 e0 88 e0     Q.y........ ....
    100a:	f3 e8 ba 63 79 00 ab a9 ff 99 ff fc 3a 07 00 02     ...cy.......:...
    101a:	00 22 00 00 00 00 00 00 00 00 00 00 00 00 00 00     ."..............
	...
    103a:	00 00 00 20 00 20 00 00 94 b3 ff ff e7 3f c6 7d     ... . .......?.}
    104a:	c6 7d ef ff df bf 53 b6 09 af 1a 93 09 f2 09 f1     .}....S.........
    105a:	43 b7 85 5b c6 ff ef ff f7 ff ef 9f ef 7e ef 5d     C..[.........~.]
    106a:	f7 9e f7 be ff ff ff ff e7 7f ef bf ef df ef ff     ................
    107a:	ef ff 53 2f 29 ea 9d 37 d6 dd e7 3e f7 9f f7 bf     ..S/)..7...>....
    108a:	ef df c6 9f d6 ff e7 3d c6 15 c5 f2 ef 35 d6 53     .......=.....5.S
    109a:	ad 12 a4 d3 b5 77 9c b3 9c f3 94 b2 9d 14 8c 72     .....w.........r
    10aa:	94 91 8c 2f 7b cd 6b 4c 52 aa 42 08 31 a7 31 86     .../{.kLR.B.1.1.
    10ba:	31 a7 39 c7 31 86 31 85 31 85 39 a5 20 e2 62 87     1.9.1.1.1.9. .b.
    10ca:	72 01 bc 07 c4 05 dc a5 cb c2 fc 66 a9 60 b9 e1     r..........f.`..
    10da:	db 06 b2 44 b3 48 ff 99 ff db 8c 6f 00 41 00 01     ...D.H.....o.A..
	...
    110e:	29 66 ff df de de d6 9f bd bc ff bf e7 5f f7 ff     )f..........._..
    111e:	b6 7f 8d 9e 9e 7f 75 5e 54 7a 3b 96 75 1c 8d 9c     ......u^Tz;.u...
    112e:	ae 3d cf 1f ef ff ff ff f7 df d6 fc d6 dc e7 7e     .=.............~
    113e:	ef bf f7 ff ef df d7 3f df 5f f7 ff a5 99 95 17     .......?._......
    114e:	df 3f e7 5f f7 df ef 9f d7 1f be bf be df ce df     .?._............
    115e:	be 19 c6 13 b5 4c bd 4b ac ca ac af ac b1 a4 d4     .....L.K........
    116e:	a4 f5 a5 35 8c b3 9d 15 94 d4 94 b2 8c 50 83 ee     ...5.........P..
    117e:	73 8d 5a eb 4a 49 31 c7 31 86 31 86 31 a6 31 66     s.Z.JI1.1.1.1.1f
    118e:	31 86 31 85 39 c5 20 e2 6a e8 7a 84 a3 44 bb e5     1.1.9. .j.z..D..
    119e:	f5 29 ec 66 c2 80 b1 60 da 84 ca 24 ba 65 92 03     .).f...`...$.e..
    11ae:	ed d2 ff 39 f7 7c 00 61 00 a3 00 00 00 00 00 00     ...9.|.a........
	...
    11d6:	00 00 10 82 00 00 9c b3 ff ff ef 5f b5 79 7b b4     ..........._.y{.
    11e6:	83 f7 c6 3f e7 7f b6 7f cf bf df ff a6 df 85 9c     ...?............
    11f6:	9e 5f 9e 1f 6c 38 4b 33 5b b3 95 78 d7 7e d7 7d     ._..l8K3[..x.~.}
    1206:	c6 9b ce dd ce bd e7 9f f7 df df 1f d7 1f e7 9f     ................
    1216:	df 3f be 3b ad b9 df 5f e7 9f d7 1e b6 1a b6 5d     .?.;..._.......]
    1226:	a6 3f ae 7f ae 1e a5 96 e7 36 e6 d1 bd 49 a4 47     .?.......6...I.G
    1236:	a4 0b b4 91 ac 93 b5 36 a5 55 a5 76 95 15 84 b3     .......6.U.v....
    1246:	94 d2 8c 71 84 0f 7b ce 63 2c 4a 8a 39 e8 31 86     ...q..{.c,J.9.1.
    1256:	31 86 31 86 31 86 39 a6 31 85 31 84 29 02 6a c8     1.1.1.9.1.1.).j.
    1266:	59 81 71 a0 d4 48 cb 43 c2 60 ca 61 ca 22 e2 e6     Y.q..H.C.`.a."..
    1276:	f3 69 db 49 81 20 bb aa ff 9b ff bc 00 20 00 21     .i.I. ....... .!
	...
    12a2:	00 00 00 01 00 01 29 26 d6 bb f7 7d ef 3c 9c d0     ......)&...}.<..
    12b2:	84 30 7b f4 73 b5 84 b8 a5 fc a6 5d 95 da 85 59     .0{.s......]...Y
    12c2:	9e 3d a6 1e 9d dd 7c 99 53 73 3a 8f 3a ce 5b d1     .=....|.Ss:.:.[.
    12d2:	6c 32 a5 b9 b6 3b be 5c ce fe d6 ff c6 7c d6 fe     l2...;.\.....|..
    12e2:	e7 7f ce 9d ad ba 8c d6 be 1b ef df e7 7f b6 1a     ................
    12f2:	b6 7e a6 9f 96 1f ae 5e c6 7a ef 77 f7 32 c5 6a     .~.....^.z.w.2.j
    1302:	a4 27 ac 2c cd 34 b4 b4 8c 11 7b ef 9d 75 95 55     .'.,.4....{..u.U
    1312:	95 14 94 d3 94 91 84 30 7b ef 6b 6e 52 ab 42 08     .......0{.knR.B.
    1322:	31 a7 31 a6 31 86 39 a6 39 a6 39 a5 29 23 39 85     1.1.1.9.9.9.)#9.
    1332:	62 46 82 85 58 a0 81 20 ca e3 db 03 d2 82 e3 05     bF..X.. ........
    1342:	da c5 d2 c6 a1 c2 70 c0 a2 a6 fe f8 ff dd ad 54     ......p........T
	...
    1362:	00 01 00 00 00 00 00 00 00 20 00 00 00 00 00 01     ......... ......
    1372:	00 03 00 03 94 54 ef 3d ef 7a b5 af 9d 09 ad cd     .....T.=.z......
    1382:	ad f4 a5 f8 9d b8 84 f7 53 d4 6c 77 85 3a 4b 52     ........S.lw.:KR
    1392:	4b 31 74 75 a5 da 9d 78 7c 75 63 d3 53 72 53 72     K1tu...x|uc.SrSr
    13a2:	7c 96 8d 38 ad fb a5 da ad da c6 7d c6 5c c6 5c     |..8.......}.\.\
    13b2:	c6 5c ce bd be 1b ad b9 d7 1f d7 5f be 9d ae 3c     .\........._...<
    13c2:	a6 bf 9e 5e ae 7c be 59 c6 34 d6 51 b4 cb 9b e9     ...^.|.Y.4.Q....
    13d2:	ac 4e bc f3 9c 32 41 c8 29 64 63 8c 84 90 a5 b5     .N...2A.)dc.....
    13e2:	9c f3 94 b2 8c 71 84 30 73 ae 5a ec 42 49 39 c7     .....q.0s.Z.BI9.
    13f2:	31 a7 31 86 31 86 39 a5 39 a5 20 c2 5a 68 62 05     1.1.1.9.9. .Zhb.
    1402:	92 85 c3 26 a1 a0 d2 c3 e3 04 c2 20 eb c8 91 40     ...&....... ...@
    1412:	99 c0 79 20 89 c1 92 64 d4 cf ff 7b ff df 00 00     ..y ...d...{....
	...
    142e:	00 00 00 02 00 02 00 00 00 00 00 20 00 20 00 00     ........... . ..
    143e:	00 01 00 03 29 29 de 9d ff 9d f7 b8 a5 28 a5 64     ....)).......(.d
    144e:	9d 43 9d 49 95 4e 8d 31 c7 1c cf 3f 85 3a 85 3b     .C.I.N.1...?.:.;
    145e:	9d bc 53 51 95 58 d7 5f be 7b 9d 99 ad fb 9d 7b     ..SQ.X._.{.....{
    146e:	9d 7b 6c 35 7c b7 b6 5d 8d 18 8c f7 ce 9d be 1b     .{l5|..]........
    147e:	bd fb b5 fa b5 b9 9d 37 84 95 c6 bd e7 bf df 7f     .......7........
    148e:	a6 1b 9e 7c cf ff cf 7f 8d 14 52 c8 52 65 49 c1     ...|......R.ReI.
    149e:	7b 28 bc f2 ac b3 94 11 10 61 00 00 08 80 32 05     {(.......a....2.
    14ae:	7c 2f 9d 13 94 b3 8c 72 84 51 73 cf 5b 0c 4a 69     |/.....r.Qs.[.Ji
    14be:	39 e8 31 a6 31 65 31 85 39 85 41 c6 20 c2 73 2b     9.1.1e1.9.A. .s+
    14ce:	62 26 a2 a6 ca e5 ca 82 d2 61 fb c7 ca 61 cb 05     b&.......a...a..
    14de:	81 20 81 a0 9a 83 aa e4 9a 84 c4 4c ff 19 f7 1b     . .........L....
    14ee:	39 c7 00 00 00 00 00 00 00 00 00 00 00 00 00 00     9...............
    14fe:	00 03 00 02 00 00 00 00 00 40 00 40 00 00 00 01     .........@.@....
    150e:	00 02 83 f2 ef 3d f7 9b b5 cd a5 45 be 43 a5 80     .....=.....E.C..
    151e:	ad 82 ad 65 ad 8b ad b0 9d 95 95 79 95 9c 9d de     ...e.......y....
    152e:	d7 bf ae 5e c6 ff df 9f ef ff e7 7f ef df d7 3f     ...^...........?
    153e:	e7 ff ae 5e 74 76 74 55 6b d3 f7 ff f7 bf ef 7f     ...^tvtUk.......
    154e:	c6 5b b5 d9 8c b5 53 0e b6 3b d7 5f d7 7f be fd     .[....S..;._....
    155e:	bf 1c 5c 0f 09 46 00 83 10 c2 31 84 18 a0 5a 88     ..\..F....1...Z.
    156e:	ac f3 b5 35 8c 0f 00 00 31 a3 08 60 18 a0 5a c9     ...5....1..`..Z.
    157e:	9c d2 94 b3 8c 92 84 51 7b f0 6b 6e 52 ab 42 28     .......Q{.knR.B(
    158e:	31 a6 31 86 31 86 39 85 31 64 31 64 49 e6 72 67     1.1.1.9.1d1dI.rg
    159e:	9a 64 ba 83 b1 a0 eb 24 da a2 eb 86 99 a0 70 e0     .d.....$......p.
    15ae:	9a a3 a2 e4 ab 24 9a c4 9b 47 ee 35 ff fe b5 b6     .....$...G.5....
    15be:	00 00 00 20 00 00 00 00 00 20 00 00 00 00 00 02     ... ..... ......
    15ce:	00 01 00 00 00 00 00 40 00 20 00 60 00 20 08 62     .......@. .`. .b
    15de:	ef 3d f7 bc f7 b8 8c 86 ad 65 a5 60 be 00 c5 a0     .=.......e.`....
    15ee:	c5 61 bd 65 b5 ca ad d0 9d 93 8d 35 85 17 7c f7     .a.e.......5..|.
    15fe:	74 96 7c 96 a5 fb 8d 18 be 5d c6 df d7 3f e7 ff     t.|......]...?..
    160e:	df df a6 1c 95 59 84 95 c6 7d f7 ff e7 5f f7 df     .....Y...}..._..
    161e:	df 3f 84 74 42 6c 42 ad ef ff df 9f 95 77 01 43     .?.tBlB......w.C
    162e:	00 40 00 83 08 e5 00 42 18 e3 29 84 8c 4f a5 34     .@.....B..)..O.4
    163e:	9c f3 84 2f 31 83 63 28 6b 29 39 43 62 89 9c d3     .../1.c(k)9Cb...
    164e:	9c d3 94 b3 8c 71 7c 10 6b 8e 5a eb 42 49 31 a6     .....q|.k.Z.BI1.
    165e:	31 a6 39 a6 39 a6 39 65 31 44 41 a5 59 e5 92 64     1.9.9.9e1DA.Y..d
    166e:	a2 21 99 60 db 25 db 04 c2 82 80 e0 9a 21 aa c3     .!.`.%.......!..
    167e:	ab 44 a2 e2 ab 65 82 c4 cd 92 f7 7c be 17 00 00     .D...e.....|....
    168e:	00 00 00 00 00 00 08 41 00 20 00 00 00 00 00 00     .......A. ......
	...
    16a6:	00 40 00 20 84 2e ff fb e7 56 84 27 84 44 9c e4     .@. .....V.'.D..
    16b6:	a5 43 ad 42 cd a3 d5 a3 cd c4 c5 a5 ad 85 a5 88     .C.B............
    16c6:	b6 2e c6 d4 84 b0 84 b3 95 58 95 39 8d 19 8d 7b     .........X.9...{
    16d6:	a6 3d 95 bb 95 bb 9d db cf 1f ef ff df 7f 8c f7     .=..............
    16e6:	be 1b d6 bd ce 9d ce 9c a5 57 7c 33 21 a9 df 5f     .........W|3!.._
    16f6:	df 5f 6c 31 00 60 00 80 11 25 19 47 10 e4 08 a3     ._l1.`...%.G....
    1706:	29 a5 95 32 a5 74 94 f2 9d 11 7c 0c 8c 2d a4 af     )..2.t....|..-..
    1716:	51 c7 83 6f a4 d4 9c d4 94 b3 8c 72 84 30 73 af     Q..o.......r.0s.
    1726:	63 0c 4a 6a 39 c7 31 a6 31 86 39 a6 39 85 31 44     c.Jj9.1.1.9.9.1D
    1736:	31 44 41 84 7a 64 79 c0 9a 41 db c8 c2 e4 b2 22     1DA.zdy..A....."
    1746:	99 80 99 c1 aa a3 b3 03 a2 e2 ab c5 7b 03 a4 ac     ............{...
    1756:	ef 9b df 3b 5b 0b 08 61 08 41 00 00 00 00 00 00     ...;[..a.A......
    1766:	00 20 00 00 00 20 00 00 00 00 00 00 00 20 00 00     . ... ....... ..
    1776:	08 80 e7 58 ef b7 e7 74 7c 05 63 40 84 43 8c 62     ...X...t|.c@.C.b
    1786:	b5 45 b4 c3 bc e3 cd 63 ce 04 ce 24 c6 04 b5 c5     .E.....c...$....
    1796:	ad 87 bd cc b5 b0 c6 36 a5 76 a5 da 95 9b 8d db     .......6.v......
    17a6:	64 56 8d 7a 53 72 7c 96 95 59 ce ff c6 bd b5 fa     dV.zSr|..Y......
    17b6:	a5 78 d6 dd df 3f f7 ff e7 7f 74 12 a5 97 f7 ff     .x...?....t.....
    17c6:	c6 9a 19 64 19 44 10 e5 08 84 21 66 08 c2 21 a4     ...d.D....!f..!.
    17d6:	9d 73 9d 94 95 12 a5 93 ad 92 9c af a4 90 72 ab     .s............r.
    17e6:	b4 b5 a4 d4 9c f4 9c b3 94 92 8c 51 7b ef 63 4d     ...........Q{.cM
    17f6:	52 ca 42 08 31 a6 31 85 39 a6 39 a6 31 65 31 45     R.B.1.1.9.9.1e1E
    1806:	39 43 30 80 7a 84 a3 67 b3 67 b2 e6 89 40 80 c0     9C0.z..g.g...@..
    1816:	b2 a5 aa 83 a2 82 ab 63 a3 c4 93 a5 73 66 e7 79     .......c....sf.y
    1826:	f7 dc 84 2f 00 00 00 00 00 00 00 00 00 00 00 20     .../........... 
	...
    183e:	00 00 08 82 00 00 6b ab f7 fa df 34 c6 90 94 e7     ......k....4....
    184e:	84 44 7c 02 7b c2 84 02 ad 06 bd 67 c5 e7 cd e5     .D|.{......g....
    185e:	cd e3 cd c2 d6 02 de 43 cd e4 d6 28 bd 8a b5 af     .......C...(....
    186e:	9d 52 be bb 9e 3d 8d 7b 9d bb 6c 14 6c 14 63 92     .R...=.{..l.l.c.
    187e:	74 34 8c d6 9d 58 be 5c c6 7c df 3f f7 df be 3a     t4...X.\.|.?...:
    188e:	73 f0 42 4a df 3d df 5d 32 07 00 61 08 a4 08 a4     s.BJ.=.]2..a....
    189e:	11 04 00 81 4a c8 9d 73 9d 74 95 13 94 f1 a5 73     ....J..s.t.....s
    18ae:	a5 31 a4 d1 a4 52 b5 15 a4 d4 a4 d3 9c b3 94 92     .1...R..........
    18be:	8c 51 84 10 6b 6d 5a eb 42 48 39 c7 29 65 31 86     .Q..kmZ.BH9.)e1.
    18ce:	39 a6 39 86 31 65 39 85 39 63 28 c0 51 e3 82 c7     9.9.1e9.9c(.Q...
    18de:	7a 25 69 21 89 83 a2 25 aa 64 a2 a2 b3 a3 ac 04     z%i!...%.d......
    18ee:	9c 05 62 c2 ce 12 f7 9b bd d6 10 a2 00 00 00 20     ..b............ 
    18fe:	00 20 00 00 00 00 08 20 00 00 00 00 08 41 00 01     . ..... .....A..
    190e:	00 00 10 c3 d6 d9 ef 99 ce b3 73 e6 7c 25 b5 a9     ..........s.|%..
    191e:	a5 47 9c e5 6b 60 42 40 63 40 8c 62 ad 44 bd a4     .G..k`B@c@.b.D..
    192e:	cd c2 cd c1 d5 a0 d5 c0 e6 03 d5 e5 c5 a8 b5 ad     ................
    193e:	c6 53 b6 57 ae 39 b6 5c ce de c6 9d c6 be 8c d6     .S.W.9.\........
    194e:	42 ae 5b 70 7c 54 ad fa e7 bf e7 7f ce dc be 59     B.[p|T.........Y
    195e:	8c 92 ef 9e e7 9e 8c d2 00 61 08 e5 21 46 08 a2     .........a..!F..
    196e:	10 c1 8c 8f 95 12 9d 14 a5 76 9d 14 9c f2 a5 32     .........v.....2
    197e:	ad 32 b5 34 a4 92 a4 d3 a4 d3 9c b3 94 92 8c 71     .2.4...........q
    198e:	84 30 73 ae 63 2c 4a 69 39 e7 29 65 31 86 39 a6     .0s.c,Ji9.)e1.9.
    199e:	39 a7 39 86 39 a7 39 c7 39 85 18 80 20 a0 62 26     9.9.9.9.9... .b&
    19ae:	7a 47 81 e5 a2 87 9a 43 ab 04 a3 82 bc a5 9c 24     zG.....C.......$
    19be:	83 64 ac 8c ff 39 ff 9d 5a cb 00 00 00 00 00 00     .d...9..Z.......
    19ce:	00 00 00 00 08 00 00 00 00 00 08 01 00 01 00 01     ................
    19de:	63 2d ef 7d d6 d9 ad 91 52 c3 8c a8 6b a0 b5 c7     c-.}....R...k...
    19ee:	ad 84 ad a5 7c 61 63 a0 52 e0 5b 40 8c 82 bd c6     ....|ac.R.[@....
    19fe:	d6 47 d6 05 d5 a2 dd c3 ee 45 d5 83 e6 28 bd 46     .G.......E...(.F
    1a0e:	c5 89 ad 4d 9d 33 ad da 95 37 9d 78 be 7d c6 9d     ...M.3...7.x.}..
    1a1e:	b6 3c 7c 54 84 95 9d 57 9d 56 c6 7b e7 5d bd f7     .<|T...W.V.{.]..
    1a2e:	be 17 c6 99 ce fa 09 24 00 a3 10 e4 19 03 29 83     .......$......).
    1a3e:	ad 73 9d 13 9c f5 a5 37 a5 37 9d 15 9d 12 a5 32     .s.....7.7.....2
    1a4e:	a4 f1 a4 d2 a4 d3 a4 d3 9c d3 9c b2 94 72 8c 50     .............r.P
    1a5e:	73 ce 6b 4c 52 aa 42 08 31 86 31 86 31 a7 31 87     s.kLR.B.1.1.1.1.
    1a6e:	31 86 39 a7 29 47 39 c9 39 e8 29 85 18 c2 41 64     1.9.)G9.9.)...Ad
    1a7e:	7a 28 92 88 82 23 a3 44 9b 82 b4 84 ac 45 9b c5     z(...#.D.....E..
    1a8e:	9b 26 fe 76 de 99 7b cf 00 00 08 41 00 00 00 00     .&.v..{....A....
    1a9e:	00 00 00 00 00 00 08 01 00 00 00 01 10 83 b5 d8     ................
    1aae:	df 1c ce b8 32 03 63 87 63 63 31 e0 74 20 9d 43     ....2.c.cc1.t .C
    1abe:	ad e5 b6 07 ad c7 94 e4 63 60 4a 80 63 00 9c 82     ........c`J.c...
    1ace:	cd c6 d5 c5 dd e4 d5 a2 e6 24 e6 04 de 25 cd 83     .........$...%..
    1ade:	cd ca ad 51 9d 36 be 3a 94 f6 94 f6 8c b5 95 17     ...Q.6.:........
    1aee:	be 5b be 5b 7c 73 74 11 ad b6 d6 da a5 34 9c d2     .[.[|st......4..
    1afe:	ef 5c df 5c 3a 89 11 03 10 e2 42 47 39 e5 9c d1     .\.\:.....BG9...
    1b0e:	ad 75 ad 36 8c 74 94 94 a5 35 a5 34 b5 74 8c 50     .u.6.t...5.4.t.P
    1b1e:	b5 75 a4 f3 a4 f4 9c d3 9c b2 94 92 8c 51 7b cf     .u...........Q{.
    1b2e:	6b 6d 5a cb 42 29 31 a7 31 a6 31 a6 31 86 31 65     kmZ.B)1.1.1.1.1e
    1b3e:	31 86 39 88 31 88 21 46 31 c7 29 86 29 03 28 81     1.9.1.!F1.).).(.
    1b4e:	59 a4 7a 65 8b 45 93 c4 93 c3 ac 86 93 43 82 21     Y.ze.E.......C.!
    1b5e:	dd 50 ff 5b bd d7 10 a2 00 00 00 00 00 00 00 20     .P.[........... 
    1b6e:	08 20 00 00 08 41 00 00 00 00 31 c6 f7 de df 1a     . ...A....1.....
    1b7e:	a5 b2 42 64 42 c4 42 e2 4b 01 5b a1 84 e5 84 a3     ..BdB.B.K.[.....
    1b8e:	9d 04 c5 e7 bd 86 bd a6 b5 25 8b e0 73 40 8b e0     .........%..s@..
    1b9e:	bd 44 cd e6 cd c5 cd c5 de 46 d6 05 cd e5 c5 c9     .D.......F......
    1bae:	d6 54 b5 75 5a 8b 10 42 08 22 00 01 08 43 3a 0a     .T.uZ..B."...C:.
    1bbe:	ad 97 df 5d 52 eb 6b 8c a5 32 94 6f ad 12 cd f6     ...]R.k..2.o....
    1bce:	de 9b a5 14 4a 67 42 24 b5 b3 73 cc 9c d2 a5 14     ....JgB$..s.....
    1bde:	94 91 10 c1 29 63 84 2f a4 d4 bd 98 9c 95 a4 d6     ....)c./........
    1bee:	a4 d5 a4 f4 9c d4 9c d3 94 b3 8c 72 84 10 73 af     ...........r..s.
    1bfe:	63 0c 4a 6a 39 c7 29 66 31 85 31 c5 31 a5 29 84     c.Jj9.)f1.1.1.).
    1c0e:	31 86 31 87 31 87 31 a7 31 a7 31 86 31 65 31 44     1.1.1.1.1.1.1e1D
    1c1e:	20 a0 62 65 8b c8 83 85 7b 03 8b 63 9b a5 93 a7      .be....{..c....
    1c2e:	ef 3a e7 1c 00 00 00 20 00 00 00 20 00 00 00 00     .:..... ... ....
    1c3e:	00 00 00 00 00 20 08 81 b5 b5 d6 f9 ef 9b 6b aa     ..... ........k.
    1c4e:	53 26 32 41 53 44 11 80 53 a3 53 82 84 e6 9c c3     S&2ASD..S.S.....
    1c5e:	a4 e2 ad 03 bd 65 cd e7 ad 25 bd 87 c5 a7 94 22     .....e...%....."
    1c6e:	94 22 ad 05 c5 a7 b5 46 bd a7 d6 4a c5 ab 73 08     .".....F...J..s.
    1c7e:	20 a1 08 00 08 00 08 00 00 00 00 01 00 01 08 82      ...............
    1c8e:	a5 95 be 37 19 02 9c d0 9c 6d 9c 2b ac ef de 59     ...7.....m.+...Y
    1c9e:	de 9a 62 e9 21 00 4a 66 94 b0 9c f3 a5 34 7b ee     ..b.!.Jf.....4{.
    1cae:	21 42 00 20 10 80 5a 8b 8c 32 b5 37 ad 16 9c f4     !B. ..Z..2.7....
    1cbe:	9c f4 9c f4 9c d3 94 b2 94 92 84 10 73 af 63 2d     ............s.c-
    1cce:	52 8b 39 c8 31 86 31 a5 31 c5 31 c4 31 a4 31 a5     R.9.1.1.1.1.1.1.
    1cde:	31 86 31 86 31 a7 31 a7 31 a7 31 86 29 65 39 a5     1.1.1.1.1.1.)e9.
    1cee:	20 e1 31 21 6a c5 83 87 7b 04 7a e2 8b 87 ce 36      .1!j...{.z....6
    1cfe:	e7 1c a5 14 00 00 08 61 00 20 00 00 00 00 00 00     .......a. ......
    1d0e:	00 00 08 60 18 e3 f7 dd d6 d9 a5 72 3a 45 3a 44     ...`.......r:E:D
    1d1e:	21 c0 32 62 3a a1 53 a4 3a e0 53 40 5b 00 9c e2     !.2b:.S.:.S@[...
    1d2e:	a5 03 ad 44 c6 08 c5 e9 b5 68 a5 07 ad 08 bd ab     ...D.....h......
    1d3e:	c5 cc a4 c9 94 47 bd 6c 9c 68 39 80 08 40 00 00     .....G.l.h9..@..
    1d4e:	00 00 10 61 00 00 00 01 08 42 00 00 00 20 42 67     ...a.....B... Bg
    1d5e:	ce 58 39 c5 62 e8 de 53 bd 49 b5 09 bd 92 c5 b6     .X9.b..S.I......
    1d6e:	6b 0b 29 23 18 c1 94 b1 9d 13 b5 96 42 28 21 24     k.)#........B(!$
    1d7e:	10 82 18 e3 18 e2 52 a8 a5 11 a5 31 a5 13 a5 13     ......R....1....
    1d8e:	9c f3 9c d2 94 b2 94 91 84 30 7b cf 6b 6d 5a cb     .........0{.kmZ.
    1d9e:	42 08 31 a6 31 a5 31 a5 31 c5 31 a5 31 a6 31 86     B.1.1.1.1.1.1.1.
    1dae:	31 86 31 86 31 a7 31 a7 31 a6 31 86 29 44 39 a5     1.1.1.1.1.1.)D9.
    1dbe:	31 63 28 c0 41 61 72 c5 83 47 72 e6 a4 d1 d6 9a     1c(.Aar..Gr.....
    1dce:	f7 9e 00 00 00 20 00 00 00 00 00 00 08 40 08 20     ..... .......@. 
    1dde:	00 00 c6 38 de da be 16 52 c8 32 25 19 61 29 e1     ...8....R.2%.a).
    1dee:	19 80 32 62 22 00 43 02 63 e3 74 21 94 e3 84 61     ..2b".C.c.t!...a
    1dfe:	9d 25 a5 47 a5 68 a5 49 bd ed c6 0f ce 31 b5 4f     .%.G.h.I.....1.O
    1e0e:	9c ad 94 6c 7b aa 31 20 08 00 00 00 00 60 00 40     ...l{.1 .....`.@
    1e1e:	00 00 00 01 00 22 00 01 00 00 00 60 00 20 9c f3     .....".....`. ..
    1e2e:	83 ee 10 00 d5 ef de 48 d6 47 b5 8b bd d1 83 cc     .......H.G......
    1e3e:	20 e3 31 65 a5 13 b5 b5 8c 50 73 ce 18 e3 08 61      .1e.....Ps....a
    1e4e:	52 a9 18 e0 7b eb b5 b2 9c f0 9d 12 a5 13 9c f3     R...{...........
    1e5e:	9c d2 9c d2 94 b1 8c 50 7b ef 73 8e 63 0c 42 28     .......P{.s.c.B(
    1e6e:	31 a6 31 86 31 a6 31 a6 31 a6 31 a6 31 a6 31 86     1.1.1.1.1.1.1.1.
    1e7e:	31 86 31 a7 31 a7 31 a7 31 a6 31 a6 41 c6 39 a5     1.1.1.1.1.1.A.9.
    1e8e:	31 02 28 c0 41 42 5a 25 6a a8 7b ce bd f7 d6 9a     1.(.ABZ%j.{.....
    1e9e:	31 a6 00 20 00 00 00 20 00 00 00 00 00 00 6b 6d     1.. ... ......km
    1eae:	ef 5d e7 1b d6 ba 94 d1 52 e9 29 c4 29 c2 5b 88     .]......R.).).[.
    1ebe:	3a 83 2a 21 2a 00 42 c1 5b 81 84 a4 ad ea 7c 65     :.*!*.B.[.....|e
    1ece:	95 09 94 ea ce b2 ad 8f 94 ad b5 b3 c5 f5 9c b1     ................
    1ede:	4a 28 29 25 00 00 08 21 00 20 00 20 00 20 00 20     J()%...!. . . . 
    1eee:	00 21 00 01 00 01 08 81 10 e0 10 c0 7b ce 7b 6d     .!..........{.{m
    1efe:	20 80 ac 88 f6 e6 de 80 c6 43 9d 24 83 e8 7b 8c      ........C.$..{.
    1f0e:	73 8f 62 ed 94 b2 ce 78 9d 12 63 4a 73 ec 8c 8e     s.b....x..cJs...
    1f1e:	21 20 7c 0c a5 32 a5 33 a5 13 a5 13 9d 12 9c f2     ! |..2.3........
    1f2e:	9c d2 94 d1 8c 70 84 0f 73 ae 63 2c 4a 69 39 c7     .....p..s.c,Ji9.
    1f3e:	31 86 31 86 31 86 31 a6 31 a6 31 a6 31 86 31 86     1.1.1.1.1.1.1.1.
    1f4e:	31 a6 31 a7 31 a7 31 a7 39 c7 29 45 31 65 49 e7     1.1.1.1.9.)E1eI.
    1f5e:	41 a6 30 e3 30 c2 41 65 6b 2c ad 55 bd f7 94 b2     A.0.0.Aek,.U....
    1f6e:	00 20 00 20 00 20 18 a2 00 00 00 00 00 00 c6 38     . . . .........8
    1f7e:	c6 18 de fa df 1b e7 7c 9d 32 4a e8 63 ca 29 e2     .......|.2J.c.).
    1f8e:	29 e1 21 e1 32 41 19 a0 63 e5 2a 00 53 44 74 49     ).!.2A..c.*.SDtI
    1f9e:	a5 b0 31 e2 00 20 00 20 42 47 ad 55 94 92 18 a4     ..1.. . BG.U....
    1fae:	41 e9 52 4b 31 88 08 c3 00 20 00 80 00 80 00 01     A.RK1.... ......
    1fbe:	08 63 31 a8 31 e7 42 45 3a 04 5a ca 7b 8d 41 42     .c1.1.BE:.Z.{.AB
    1fce:	83 63 ff 66 e6 e0 e7 46 b5 c7 42 20 62 e9 c5 d7     .c.f...F..B b...
    1fde:	a4 d4 52 89 52 c9 a5 33 a5 53 b5 b4 63 6b 4a 87     ..R.R..3.S..ckJ.
    1fee:	94 d1 9d 14 a5 55 9d 13 a5 13 9d 13 9c f2 9c d2     .....U..........
    1ffe:	9c d2 8c 90 84 2f 7b ce 6b 4c 52 aa 39 e7 31 86     ...../{.kLR.9.1.
    200e:	31 66 31 86 31 87 31 a6 31 86 31 86 31 a6 31 a6     1f1.1.1.1.1.1.1.
    201e:	31 a6 29 a6 29 a6 21 25 31 a7 39 c7 31 66 39 66     1.).).!%1.9.1f9f
    202e:	41 87 39 26 20 a4 8c 10 a5 34 de db ad 55 00 00     A.9& ....4...U..
    203e:	00 20 00 00 00 00 00 00 18 c3 00 00 00 00 21 24     . ............!$
    204e:	7b ef be 17 c6 78 d7 1a c6 97 a5 b3 6b ec 3a 45     {....x......k.:E
    205e:	32 23 29 e2 32 63 3a a5 5b 68 5b 89 84 ae 00 40     2#).2c:.[h[....@
    206e:	00 20 08 81 00 00 00 00 73 af a5 15 29 46 39 a8     . ......s...)F9.
    207e:	42 09 39 e9 32 08 19 44 00 a0 00 20 08 83 42 0a     B.9.2..D... ..B.
    208e:	4a 8b 29 85 31 e4 29 82 52 89 94 2f 20 60 51 e0     J.).1.).R../ `Q.
    209e:	f7 07 ef 06 d6 8c 39 a0 83 cb ff dd e6 fa ef 3a     ......9........:
    20ae:	ef 5a 9c d1 42 08 7b b0 ad 78 9c f6 ad 77 a5 56     .Z..B.{..x...w.V
    20be:	94 d4 9d 15 a5 14 a5 14 9c f3 9c f3 9c d3 9c d3     ................
    20ce:	94 91 8c 50 7b ee 6b 8d 5a ca 42 28 31 a6 31 86     ...P{.k.Z.B(1.1.
    20de:	31 87 31 87 31 87 31 86 31 86 31 a6 31 a6 31 a6     1.1.1.1.1.1.1.1.
    20ee:	29 86 29 85 31 c6 29 86 29 66 31 67 31 47 31 26     ).).1.).)f1g1G1&
    20fe:	31 47 41 a8 8c 72 8c 51 ad 55 63 2c 00 00 00 20     1GA..r.Q.Uc,... 
    210e:	00 00 08 41 00 00 00 00 08 41 00 20 00 00 00 20     ...A.....A. ... 
    211e:	29 65 5b 0b c6 78 d6 fa d6 f9 be 56 95 31 5b 4a     )e[..x.....V.1[J
    212e:	32 04 29 e4 09 01 42 a8 74 2e 00 60 00 20 08 c2     2.)...B.t..`. ..
    213e:	00 00 00 00 00 21 52 ab 73 af 21 05 39 c8 31 a7     .....!R.s.!.9.1.
    214e:	4a 49 3a 28 4a a9 31 c5 21 64 42 29 31 a8 18 e4     JI:(J.1.!dB)1...
    215e:	31 c6 21 42 10 c0 4a 68 6a ea 39 42 6a c3 f7 0c     1.!B..Jhj.9Bj...
    216e:	c5 a7 5a 82 52 45 e6 d6 ff d9 e6 f3 d6 b1 de f3     ..Z.RE..........
    217e:	e7 16 ce 77 73 8f 39 aa 7b d3 a5 17 ad 57 9d 15     ...ws.9.{....W..
    218e:	a5 34 a5 14 a5 14 9c f4 9c d4 9c d4 9c d4 94 92     .4..............
    219e:	8c 51 7c 0f 73 ad 5b 0b 4a 48 39 c6 31 86 31 86     .Q|.s.[.JH9.1.1.
    21ae:	31 87 31 87 31 87 31 86 31 a6 31 a6 31 a6 29 85     1.1.1.1.1.1.1.).
    21be:	21 64 3a 07 29 65 19 04 29 45 31 87 31 88 31 67     !d:.)e..)E1.1.1g
    21ce:	31 47 4a 29 31 a6 29 45 08 61 00 00 00 00 00 00     1GJ)1.)E.a......
	...
    21ee:	00 20 10 a2 73 ce ce b9 ce b9 ce d9 ce d9 9d 53     . ..s..........S
    21fe:	52 eb 4a ca 63 ae 19 24 00 20 00 00 00 62 00 00     R.J.c..$. ...b..
    220e:	00 00 00 00 39 e8 84 10 08 61 94 b2 39 e7 31 85     ....9....a..9.1.
    221e:	39 e7 42 28 42 27 39 c6 39 c7 18 e4 00 00 18 e3     9.B(B'9.9.......
    222e:	10 c2 10 c1 4a 68 5a c9 6b 2a 83 a9 de 71 6a e4     ....JhZ.k*...qj.
    223e:	18 40 d6 14 ff d5 ef 8e f7 ab ef aa ef ad d6 cd     .@..............
    224e:	d6 d2 f7 9a bd d7 4a 2b 39 a9 94 93 c6 36 a5 53     ......J+9....6.S
    225e:	a5 34 94 93 94 b4 a5 16 a4 f6 94 b4 94 93 94 92     .4..............
    226e:	8c 50 7b ce 63 0a 4a 48 39 c6 31 86 31 86 31 87     .P{.c.JH9.1.1.1.
    227e:	31 87 31 87 31 87 31 86 31 a6 29 85 29 85 21 64     1.1.1.1.1.).).!d
    228e:	31 e6 29 85 42 48 31 a6 21 04 31 a7 29 66 31 a7     1.).BH1.!.1.)f1.
	...
    22be:	00 20 00 00 00 61 63 6c c6 78 d6 fa ce b9 ce da     . ...acl.x......
    22ce:	a5 75 19 04 00 20 00 62 00 41 00 00 00 00 00 00     .u... .b.A......
    22de:	00 21 42 08 4a 49 52 8a ff de 94 91 31 65 41 e7     .!B.JIR.....1eA.
    22ee:	31 a6 41 e7 4a 28 52 6a 31 46 00 00 00 20 21 44     1.A.J(Rj1F... !D
    22fe:	21 64 42 48 4a 88 a5 32 8c 0d 62 a7 41 83 7b 6b     !dBHJ..2..b.A.{k
    230e:	f7 16 ff f0 f7 c9 f7 e6 f7 e5 ff e9 ef 8b ef 6f     ...............o
    231e:	ce 6f e6 f6 ff bc b5 55 39 c7 42 27 a5 13 ad 75     .o.....U9.B'...u
    232e:	bd f8 ad 57 94 94 9c d6 9c d6 8c 53 84 32 7b ef     ...W.......S.2{.
    233e:	73 ae 63 4b 52 a9 42 07 31 a6 31 86 31 66 31 87     s.cKR.B.1.1.1f1.
    234e:	31 87 31 87 31 87 31 a6 29 a5 29 85 21 64 42 68     1.1.1.1.).).!dBh
    235e:	4a a8 4a a9 29 85 21 24 21 44 18 e3 42 08 00 00     J.J.).!$!D..B...
	...
    238a:	00 20 00 00 00 20 00 00 00 00 10 c2 42 69 a5 54     . ... ......Bi.T
    239a:	b5 f6 52 c9 00 20 08 a1 00 00 00 00 00 00 00 20     ..R.. ......... 
    23aa:	00 00 00 00 4a 49 29 25 9c b3 ff ff d6 9a 94 71     ....JI)%.......q
    23ba:	41 e7 39 a6 41 e7 41 e8 4a 08 49 e8 18 a3 00 00     A.9.A.A.J.I.....
    23ca:	08 62 10 e3 42 68 4a a8 d6 d9 52 a9 39 86 31 43     .b..BhJ...R.9.1C
    23da:	de 73 ff d2 ff aa f7 c6 ff e5 f7 a5 ff e9 f7 ca     .s..............
    23ea:	ff ec f7 ad e7 0e de d2 ef 59 e6 db 9c 73 41 c9     .........Y...sA.
    23fa:	5a ca 84 30 ad 76 ad 57 94 95 94 75 9c b5 9c b4     Z..0.v.W...u....
    240a:	8c 51 84 0f 6b 8d 52 c9 42 07 31 a6 31 86 31 87     .Q..k.R.B.1.1.1.
    241a:	31 87 31 87 31 87 31 87 31 86 29 a6 29 85 29 64     1.1.1.1.1.).).)d
    242a:	3a 06 08 a1 00 00 00 40 4a 68 31 c5 10 c1 42 48     :......@Jh1...BH
	...
    2456:	00 00 00 41 00 00 00 41 00 00 00 00 00 41 00 20     ...A...A.....A. 
    2466:	19 23 8c b0 00 20 00 00 00 20 00 00 00 00 10 a2     .#... ... ......
    2476:	00 00 00 20 00 00 52 ab 29 25 c6 19 de bb e6 fc     ... ..R.)%......
    2486:	ef 5d bd 95 62 ea 31 65 39 66 4a 08 41 c8 18 a3     .]..b.1e9fJ.A...
    2496:	08 21 00 00 00 20 42 48 4a a9 df 3b 42 27 39 a6     .!... BHJ..;B'9.
    24a6:	83 cb ff 92 ff ac f7 66 ff c5 ff c5 f7 a5 ff e8     .......f........
    24b6:	f7 87 ef 65 ff e8 ff eb f7 8e ef 12 e6 b5 d6 57     ...e...........W
    24c6:	cd f6 7b cc 4a 87 63 2b a5 35 bd b8 a4 f6 94 74     ..{.J.c+.5.....t
    24d6:	8c 53 8c 72 84 10 73 8d 5a c9 42 07 31 a6 31 86     .S.r..s.Z.B.1.1.
    24e6:	31 87 31 87 31 87 31 86 31 86 31 86 31 86 29 85     1.1.1.1.1.1.1.).
    24f6:	29 65 29 85 08 a1 00 20 21 43 4a a9 19 02 10 c1     )e).... !CJ.....
    2506:	42 47 00 00 00 00 00 00 00 00 00 00 00 00 00 00     BG..............
	...
    2526:	00 00 08 61 00 41 00 00 08 61 00 00 00 00 5b 0b     ...a.A...a....[.
    2536:	31 c4 18 e1 19 01 00 00 00 40 00 20 00 00 00 20     1........@. ... 
    2546:	00 00 10 82 52 ab 31 87 e7 1d de bb e6 fc de db     ....R.1.........
    2556:	de fb de da b5 75 52 48 29 04 49 e8 29 25 00 00     .....uRH).I.)%..
    2566:	00 00 00 61 29 86 5b 0c e7 3c 4a 68 29 41 e6 f2     ...a).[..<Jh)A..
    2576:	ff 8d f7 a8 ff a6 ff e6 ff c6 ff a5 ff e6 f7 84     ................
    2586:	ff e3 ff e4 ff e4 f7 86 f7 6a f7 6e f7 50 e7 31     .........j.n.P.1
    2596:	e7 34 be 32 5a e7 31 a4 84 10 b5 98 a5 16 9c d5     .4.2Z.1.........
    25a6:	8c 31 84 10 73 8d 5b 0a 4a 68 39 e7 31 86 29 46     .1..s.[.Jh9.1.)F
    25b6:	31 a6 31 86 31 86 31 86 31 86 31 86 31 86 29 85     1.1.1.1.1.1.1.).
    25c6:	21 24 39 c7 4a 48 3a 07 29 85 10 c2 31 a5 18 c2     !$9.JH:.)...1...
	...
    25f2:	00 00 08 41 00 00 00 00 00 20 00 41 00 00 10 c3     ...A..... .A....
    2602:	6b 8d 00 40 4a 47 10 c1 08 40 00 20 00 00 00 00     k..@JG...@. ....
    2612:	00 20 00 00 29 66 39 e8 63 0c f7 9e de db d6 bb     . ..)f9.c.......
    2622:	ce 79 de fb d6 da e7 5b de b9 9c b3 4a 09 08 22     .y.....[....J.."
    2632:	10 62 00 00 00 40 19 05 94 93 de db 08 40 8c 68     .b...@.......@.h
    2642:	f7 af f7 a8 ff c5 ff c6 ff c7 ff 86 ff a6 ff c6     ................
    2652:	ff a4 ff e5 f7 a2 f7 82 ff e5 ff e8 f7 a8 ef 49     ...............I
    2662:	f7 8d d6 ee d7 12 ef b7 a5 50 29 64 39 e8 94 b4     .........P)d9...
    2672:	9c f5 9c d4 8c 71 7b ee 63 2b 4a 68 39 c7 31 86     .....q{.c+Jh9.1.
    2682:	31 86 31 a6 31 a5 31 86 31 86 31 86 31 86 31 86     1.1.1.1.1.1.1.1.
    2692:	31 66 29 66 21 04 29 45 29 45 29 45 29 44 52 a9     1f)f!.)E)E)E)DR.
	...
    26c6:	08 41 08 61 00 00 08 41 52 cb 39 e8 73 ae 4a 49     .A.a...AR.9.s.JI
    26d6:	00 00 00 00 00 00 00 21 08 62 00 00 08 62 4a 69     .......!.b...bJi
    26e6:	29 65 a5 34 e7 5c c6 58 ce 78 de fa ce ba be 58     )e.4.\.X.x.....X
    26f6:	ce b8 ef 7c ff bf b5 57 29 46 00 00 00 00 00 00     ...|...W)F......
    2706:	29 46 ce 3b 9c d4 18 a0 ff f1 ef a8 ff e4 ff c3     )F.;............
    2716:	ff a6 ff 67 ff 68 ff 88 ff 66 ff a6 f7 24 ff a6     ...g.h...f...$..
    2726:	ff e7 ff a6 f7 65 ff a7 ff e9 ff cb e7 8d df 70     .....e.........p
    2736:	ce d1 e7 77 ef 9b 7c 0f 29 66 52 8b 84 11 84 30     ...w..|.)fR....0
    2746:	84 0f 6b 6c 4a 89 39 c7 31 87 31 a7 31 a6 31 a5     ..klJ.9.1.1.1.1.
    2756:	31 a5 31 86 31 86 31 87 31 87 31 67 39 c8 21 06     1.1.1.1.1.1g9.!.
    2766:	29 26 31 a7 31 86 10 a2 52 8a 00 00 00 00 00 00     )&1.1...R.......
	...
    2792:	08 81 00 00 00 00 00 21 10 c3 5a cb 42 08 7b cf     .......!..Z.B.{.
    27a2:	00 21 00 01 00 00 00 00 00 00 00 00 00 00 00 41     .!.............A
    27b2:	63 4d 29 65 ce 79 df 1b ce 99 ce 98 ce b9 d6 fb     cM)e.y..........
    27c2:	d6 fa ce b8 ce 98 e7 3d bd d9 42 29 00 00 00 20     .......=..B)... 
    27d2:	08 80 39 c8 de bc 5a 88 b5 6c ff cb ff e6 ff e3     ..9...Z..l......
    27e2:	ff c3 ff 86 ff 68 ff a9 ff 88 ff 46 ff a6 ff 87     .....h.....F....
    27f2:	ff 67 ff 67 ff 66 ff a6 ff a6 ff a6 f7 87 f7 eb     .g.g.f..........
    2802:	ef ac e7 6d d6 ef d6 d2 e7 37 c5 f5 73 6d 39 c7     ...m.....7..sm9.
    2812:	5a cb 7b ce 7b ef 63 2b 42 28 29 86 29 66 31 c6     Z.{.{.c+B().)f1.
    2822:	31 a5 31 a5 31 85 31 a5 31 a6 31 86 31 86 31 87     1.1.1.1.1.1.1.1.
    2832:	39 88 31 68 31 67 31 88 18 c4 52 ab 00 00 00 00     9.1h1g1...R.....
	...
    285e:	00 41 00 00 00 00 00 00 00 00 29 86 6b 8e 63 4d     .A........).k.cM
    286e:	5a eb 00 20 00 00 08 41 00 00 00 00 08 41 00 00     Z.. ...A.....A..
    287e:	5a cb 31 86 5a eb ef 9d d6 da ce 79 ce 79 ce 79     Z.1.Z......y.y.y
    288e:	ce 9a ce 79 d6 b8 d6 b9 e7 1c ad 35 29 44 00 00     ...y.......5)D..
    289e:	00 00 00 20 62 ed ce 37 ad 0b ff ae ff a7 ff e4     ... b..7........
    28ae:	ff a4 ff a5 ff 86 ff 86 ff 87 ff 66 ff 66 ff 65     ...........f.f.e
    28be:	ff 66 ff 66 ff 66 ff 86 ff 85 ff 86 ff 86 ff a6     .f.f.f..........
    28ce:	f7 a6 f7 a6 f7 c7 f7 c8 ef 6b e7 0e de b3 d6 57     .........k.....W
    28de:	bd 97 62 ad 21 26 42 49 5b 2c 42 69 21 86 29 a6     ..b.!&BI[,Bi!.).
    28ee:	39 e8 29 45 39 e6 31 84 29 63 39 a4 29 63 31 84     9.)E9.1.)c9.)c1.
    28fe:	29 04 31 66 39 a9 29 28 29 49 29 27 31 87 00 00     ).1f9.)()I)'1...
	...
    292e:	00 21 00 21 00 00 00 01 3a 08 4a 8a 73 ae 18 e3     .!.!....:.J.s...
	...
    2946:	00 20 00 00 18 c3 6b 4d 18 c3 ad 75 de fb c6 38     . ....kM...u...8
    2956:	ce 79 d6 ba d6 9a d6 99 de da d6 ba de da d6 bb     .y..............
    2966:	73 ae 00 40 00 20 00 00 10 a2 8c 31 c5 f4 c6 0a     s..@. .....1....
    2976:	ff ca f7 64 ff e5 ff a5 ff 86 ff 86 ff 86 ff 66     ...d...........f
    2986:	ff 66 ff 65 ff 65 ff 65 ff 65 ff 65 ff 65 ff 65     .f.e.e.e.e.e.e.e
    2996:	ff 65 ff 85 ff 85 ff 84 ff a4 ff a4 ff c6 ff a8     .e..............
    29a6:	f7 6b ef 2e ee f2 d6 73 e6 d8 ad 54 4a 69 21 65     .k.....s...TJi!e
    29b6:	42 49 42 69 19 24 21 45 39 e8 21 24 31 c6 31 a4     BIBi.$!E9.!$1.1.
    29c6:	29 42 39 e5 10 60 31 45 29 25 21 06 39 a9 31 68     )B9..`1E)%!.9.1h
    29d6:	29 47 29 46 08 62 00 00 00 00 00 00 00 00 00 00     )G)F.b..........
	...
    29fa:	00 00 00 21 00 00 00 00 10 82 73 cf 42 29 7b f0     ...!......s.B){.
    2a0a:	18 e3 00 00 00 20 00 00 00 20 00 00 00 00 7b ef     ..... ... ....{.
    2a1a:	21 04 00 00 b5 b6 b5 b6 b5 96 c6 38 ce 79 ce 99     !..........8.y..
    2a2a:	be 16 ce 78 c6 19 de dc d6 bb 5a ca 00 00 00 20     ...x......Z.... 
    2a3a:	00 00 18 e3 ce 38 ad 4f de eb ff e9 f7 85 ff e5     .....8.O........
    2a4a:	ff 85 ff 86 ff 86 ff 86 ff 66 ff 65 ff 65 ff 65     .........f.e.e.e
    2a5a:	ff 65 ff 65 ff 65 ff 45 ff 45 ff 45 ff 45 ff 64     .e.e.e.E.E.E.E.d
    2a6a:	ff 63 ff 64 ff 68 ff 6a ff 6a ff 89 ff a8 f7 a8     .c.d.h.j.j......
    2a7a:	ef 6a d6 ab ce 51 c6 15 8c 52 39 e9 19 04 29 a5     .j...Q...R9...).
    2a8a:	29 86 31 a7 3a 08 29 66 21 24 29 65 21 04 00 21     ).1.:.)f!$)e!..!
    2a9a:	18 a4 18 a4 18 c4 31 85 21 02 29 64 10 62 00 00     ......1.!.)d.b..
	...
    2aca:	00 20 00 00 00 00 08 61 a5 34 39 e7 63 0c 10 82     . .....a.49.c...
    2ada:	00 00 08 41 08 61 00 00 00 00 39 c7 5a cb 08 61     ...A.a....9.Z..a
    2aea:	29 45 31 86 29 45 29 65 5a cb 8c 71 c6 38 de f9     )E1.)E)eZ..q.8..
    2afa:	de fa ce 5b de dd ad 55 29 44 00 00 00 40 00 00     ...[...U)D...@..
    2b0a:	41 e7 ef 39 a5 0b ef 6a ff e8 ff e7 ff a5 ff a6     A..9...j........
    2b1a:	ff 86 ff 86 ff 86 ff 86 ff 65 ff 65 ff 65 ff 45     .........e.e.e.E
    2b2a:	ff 45 ff 45 ff 45 ff 25 ff 25 ff 25 ff 24 ff 44     .E.E.E.%.%.%.$.D
    2b3a:	ff 45 ff 27 ff 28 ff 28 ff 46 ff 84 ff a3 ff e6     .E.'.(.(.F......
    2b4a:	ef 68 d6 8b ce 2f d6 54 bd b5 7b ad 31 a5 29 45     .h.../.T..{.1.)E
    2b5a:	18 e4 31 c8 29 66 21 65 31 c7 00 22 00 01 00 02     ..1.)f!e1.."....
    2b6a:	10 83 42 28 29 43 21 01 52 87 10 61 00 00 00 00     ..B()C!.R..a....
	...
    2b9a:	08 41 08 41 00 00 a5 13 31 86 18 e3 00 00 00 00     .A.A....1.......
    2baa:	00 00 00 20 00 00 21 04 84 10 00 00 08 61 39 e7     ... ..!......a9.
    2bba:	10 82 29 45 18 e3 21 24 31 86 42 07 8c 8f b5 94     ..)E..!$1.B.....
    2bca:	de bd e7 1f 7b f1 08 40 00 00 00 00 00 01 a5 13     ....{..@........
    2bda:	b5 8f b5 a8 f7 aa ff e7 ff e7 ff c7 ff a6 ff a6     ................
    2bea:	ff 86 ff 86 ff 86 ff 86 ff 66 ff 65 ff 45 ff 45     .........f.e.E.E
    2bfa:	ff 45 ff 25 ff 25 ff 04 ff 04 fe e5 ff 06 ff 05     .E.%.%..........
    2c0a:	ff 03 ff 02 ff 22 ff 22 ff 23 ff 24 f7 44 ff a7     .....".".#.$.D..
    2c1a:	ff e9 ff ab de ab bd 8c ac cf a4 92 62 ce 42 0b     ............b.B.
    2c2a:	10 a2 21 63 31 c5 29 85 31 c8 00 63 00 01 00 20     ..!c1.).1..c... 
    2c3a:	5b 0b 18 e2 29 23 5a ca 10 60 08 00 00 00 00 00     [...)#Z..`......
	...
    2c62:	00 00 00 20 00 00 00 00 08 40 00 00 ad 34 52 69     ... .....@...4Ri
    2c72:	00 00 00 20 00 00 00 00 00 00 08 61 9c f3 08 61     ... .......a...a
    2c82:	21 04 31 a6 21 24 29 65 31 a6 21 24 29 45 29 65     !.1.!$)e1.!$)E)e
    2c92:	21 03 18 e1 42 27 84 13 9c b6 4a 4b 00 41 00 00     !...B'....JK.A..
    2ca2:	00 00 20 a4 ff 7c 7b c3 d6 a8 ff e9 ff c6 f7 a6     .. ..|{.........
    2cb2:	ff e8 ff c6 ff c6 ff a6 ff a6 ff a6 ff 86 ff 86     ................
    2cc2:	ff 86 ff 65 ff 45 ff 45 ff 25 ff 05 ff 04 fe e4     ...e.E.E.%......
    2cd2:	fe c4 fe c5 fe e4 fe e1 fe e0 fe e0 fe e1 fe e3     ................
    2ce2:	fe e4 f6 c3 ff 23 f7 22 ef 03 ff 48 ff 6d de 2f     .....#."...H.m./
    2cf2:	ac ce ad 12 7b ad 4a 47 31 c5 21 44 21 45 31 e8     ....{.JG1.!D!E1.
    2d02:	3a 08 00 81 00 40 52 ca 10 c2 21 24 39 c6 00 00     :....@R...!$9...
    2d12:	08 20 00 00 00 00 00 00 00 00 00 00 00 00 00 00     . ..............
	...
    2d32:	08 20 00 00 00 00 00 00 10 61 ad 34 94 71 4a 28     . .......a.4.qJ(
    2d42:	00 00 00 20 10 82 10 82 94 92 18 e3 08 61 10 82     ... .........a..
    2d52:	21 04 00 20 29 45 21 04 21 04 29 45 31 a6 29 64     !.. )E!.!.)E1.)d
    2d62:	21 22 21 43 29 47 18 c6 00 23 00 01 00 00 10 61     !"!C)G...#.....a
    2d72:	8b f1 c5 b3 9c c3 f7 a8 ff e8 ff c7 ff c7 ff e7     ................
    2d82:	ff c6 ff c6 ff c6 ff c6 ff c6 ff a6 ff a6 ff 86     ................
    2d92:	ff 86 ff 65 ff 45 ff 25 ff 04 fe e4 fe e4 fe e3     ...e.E.%........
    2da2:	fe c1 fe c0 fe c1 fe a1 fe 82 fe 82 fe 82 fe 82     ................
    2db2:	fe e2 fe a1 f6 81 f6 a2 ff 06 ff 49 ff 4a f7 0b     ...........I.J..
    2dc2:	c5 c7 9c a7 9c ae 6b 0d 41 ca 31 a9 10 c2 19 43     ......k.A.1....C
    2dd2:	29 c5 21 84 3a 07 29 65 31 86 21 24 00 00 08 20     ).!.:.)e1.!$... 
	...
    2e02:	10 81 00 00 00 00 08 20 84 0f c5 f7 b5 96 52 aa     ....... ......R.
    2e12:	18 c3 4a 49 9c d3 29 65 08 61 08 61 21 04 10 a2     ..JI..)e.a.a!...
    2e22:	29 65 21 24 21 04 21 24 18 e3 21 04 29 64 29 64     )e!$!.!$..!.)d)d
    2e32:	31 a5 21 25 00 02 08 63 08 22 00 00 31 04 ff 5c     1.!%...c."..1..\
    2e42:	5a 21 f7 49 ff e7 ff 86 ff c7 ff e8 f7 65 ff e6     Z!.I.........e..
    2e52:	ff e6 ff c6 ff c6 ff c6 ff c6 ff a6 ff a6 ff 86     ................
    2e62:	ff 65 ff 65 ff 45 ff 25 ff 04 fe e4 fe e3 fe c1     .e.e.E.%........
    2e72:	fe c0 fe a1 fe 62 fe 42 fe 41 fe 20 fe 40 f6 20     .....b.B.A. .@. 
    2e82:	fe 40 fe 61 fe 83 f6 42 ee 22 f6 83 ff 25 ff 87     .@.a...B."...%..
    2e92:	e6 a8 ac c8 8b ca 73 0b 5a 6b 52 89 21 44 21 44     ......s.ZkR.!D!D
    2ea2:	31 e6 10 e2 29 a5 29 85 10 c2 00 00 00 00 00 00     1...).).........
	...
    2ece:	08 41 00 00 00 00 00 00 00 00 8c 50 7b ae ce 59     .A.........P{..Y
    2ede:	bd d7 b5 b6 7b ef 29 45 00 00 08 61 10 82 18 c3     ....{.)E...a....
    2eee:	10 a2 18 c3 18 c3 18 e3 18 e3 21 04 21 04 21 24     ..........!.!.!$
    2efe:	29 65 21 24 21 04 08 41 00 00 00 01 10 02 72 ec     )e!$!..A......r.
    2f0e:	a4 4c 93 c3 ff 67 ff c6 ff 67 ff a8 ff a6 ff e6     .L...g...g......
    2f1e:	ff a6 ff c6 ff e7 ff e7 ff e7 ff c6 ff a6 ff a6     ................
    2f2e:	ff a6 ff 86 ff 65 ff 65 ff 65 ff 45 ff 04 fe c3     .....e.e.e.E....
    2f3e:	fe a3 fe 83 fe 62 fe 62 fe 41 fe 20 fe 20 fe 20     .....b.b.A. . . 
    2f4e:	fe 00 fe 00 fe 01 fe 01 f6 01 f6 20 f6 20 ee 40     ........... . .@
    2f5e:	f6 82 fe e4 f6 e6 d5 c6 9c 26 6a c6 52 2a 52 2c     .........&j.R*R,
    2f6e:	39 c9 31 a6 29 a4 19 42 31 e6 19 04 00 01 10 c5     9.1.)..B1.......
	...
    2f9e:	00 00 08 41 00 20 00 00 29 65 39 e7 73 8e 6b 6d     ...A. ..)e9.s.km
    2fae:	31 a6 00 00 00 00 08 41 10 a2 08 41 00 20 10 82     1......A...A. ..
    2fbe:	10 82 10 a2 10 a2 18 c3 18 e3 18 e3 20 e4 29 24     ............ .)$
    2fce:	18 a2 10 a2 00 00 00 00 10 41 30 e6 93 ae 41 00     .........A0...A.
    2fde:	dd c6 ff 05 ff 23 ff 46 ff 46 ff a6 ff 65 ff c6     .....#.F.F...e..
    2fee:	ff c6 ff c6 ff c6 ff a6 ff c6 ff c6 ff e7 ff e7     ................
    2ffe:	ff c6 ff a6 ff 86 ff 86 ff 45 ff 24 fe e4 fe a5     .........E.$....
    300e:	fe 85 fe 63 fe 42 fe 20 fe 20 fe 00 fe 00 fd e0     ...c.B. . ......
    301e:	fd e0 fd e1 fd e1 fe 00 fe 00 f6 20 f6 20 f6 00     ........... . ..
    302e:	f6 20 fe c1 ff 24 f6 c9 c5 49 72 e7 39 44 49 e8     . ...$...Ir.9DI.
    303e:	41 e7 52 c9 19 02 29 a5 08 a2 00 62 00 01 00 00     A.R...)....b....
	...
    306a:	10 82 08 41 00 00 00 00 00 41 00 00 18 e4 00 00     ...A.....A......
    307a:	00 20 00 00 00 20 00 00 00 00 00 00 00 20 08 61     . ... ....... .a
    308a:	08 41 08 61 08 61 10 82 10 a2 18 c3 18 c3 18 e3     .A.a.a..........
    309a:	21 04 10 62 08 20 10 a1 00 00 10 60 49 a9 38 a1     !..b. .....`I.8.
    30aa:	8b 40 ff 27 dd 80 e5 80 f6 22 f6 42 ff 24 ff c6     .@.'.....".B.$..
    30ba:	ff 86 ff 86 ff a6 ff a6 ff a6 ff c6 ff c6 ff e7     ................
    30ca:	ff e7 ff c6 ff c6 ff a6 ff 86 ff 65 ff 45 ff 05     ...........e.E..
    30da:	fe c6 fe 86 fe 64 fe 42 fe 20 fe 00 fe 00 fd e0     .....d.B. ......
    30ea:	fd c0 fd c1 fd c1 fd c1 fd e1 fd e0 fe 00 fe 00     ................
    30fa:	fd e0 f5 a0 ed a0 f6 00 fe 83 f6 84 de 05 bd 47     ...............G
    310a:	62 a2 31 21 39 a6 41 c8 4a 4a 31 a7 00 00 00 61     b.1!9.A.JJ1....a
	...
    3136:	00 00 73 af 6b 6e 63 2d 63 2d 6b 8e 4a 8a 6b 8e     ..s.knc-c-k.J.k.
    3146:	3a 08 21 04 00 00 08 41 00 00 00 00 00 00 00 00     :.!....A........
    3156:	00 00 00 20 08 41 08 41 08 61 10 82 10 a2 18 c3     ... .A.A.a......
    3166:	18 c3 18 83 00 00 00 00 08 60 00 20 31 42 49 87     .........`. 1BI.
    3176:	49 20 f6 67 ed e0 ed 60 f5 a1 ed a0 fe 22 ee 00     I .g...`....."..
    3186:	f6 82 fe e4 ff 05 ff 66 ff 86 ff a7 ff a6 ff a6     .......f........
    3196:	ff a6 ff c6 ff c6 ff a6 ff a6 ff 86 ff 86 ff 65     ...............e
    31a6:	ff 46 fe e6 fe c6 fe 84 fe 62 fe 40 fe 00 fd e0     .F.......b.@....
    31b6:	fd c0 fd c0 fd a1 fd c1 fd c1 fd e0 fd e0 fe 00     ................
    31c6:	fe 00 fe 00 fd e0 fd c1 f5 c0 f5 e0 f6 20 f6 a0     ............. ..
    31d6:	fe e5 d5 c7 9c 26 49 e2 31 22 20 c2 4a 69 31 a6     .....&I.1" .Ji1.
	...
    3206:	ff ff ff ff ff ff ff ff f7 ff d6 fc be 5a 8c 93     .............Z..
    3216:	84 31 00 00 00 00 00 00 08 41 00 00 00 00 08 41     .1.......A.....A
    3226:	00 00 00 20 00 20 08 41 08 61 08 61 10 82 10 82     ... . .A.a.a....
	...
    323e:	29 21 41 a2 20 60 ac 27 f6 24 d4 e0 fe 23 fd 61     )!A. `.'.$...#.a
    324e:	ed 20 fd e1 ed c0 e5 80 f6 01 fe 42 fe a4 ff 05     . .........B....
    325e:	ff 45 ff 66 ff 86 ff a6 ff a6 ff a6 ff c6 ff a6     .E.f............
    326e:	ff a6 ff a6 ff 86 ff 86 ff 25 ff 04 fe e3 fe a1     .........%......
    327e:	fe 60 fe 20 fd e1 fd c2 fd a2 fd a2 fd c0 fd c0     .`. ............
    328e:	fd e0 fd e0 fd e0 fd e0 fd c0 fd e1 fd e1 fe 01     ................
    329e:	fe 20 fe 20 f6 00 e6 00 f6 c1 ff 06 c5 65 83 a3     . . .........e..
    32ae:	39 60 10 00 5a 8a 00 01 00 00 00 00 00 00 00 00     9`..Z...........
	...
    32d2:	00 00 ff ff f7 ff f7 ff f7 ff f7 ff ef df c6 9b     ................
    32e2:	95 15 9c f3 08 41 08 41 00 00 00 00 00 00 00 00     .....A.A........
    32f2:	00 20 00 00 00 00 00 00 00 00 00 20 00 20 00 20     . ......... . . 
    3302:	08 21 00 00 10 21 08 20 18 c0 52 67 08 00 5a 20     .!...!. ..Rg..Z 
    3312:	d5 67 e5 60 ed 40 fd 60 ec a0 fd 60 f5 40 f5 c1     .g.`.@.`...`.@..
    3322:	f5 c1 f5 80 fd a0 fd e1 fe 22 fe 83 fe e4 ff 45     .........".....E
    3332:	ff 86 ff 86 ff a6 ff c7 ff c7 ff a6 ff a6 ff 86     ................
    3342:	ff 85 ff 64 ff 44 ff 23 fe e2 fe a2 fe 42 fe 02     ...d.D.#.....B..
    3352:	fd e2 fd c1 fd c0 fd c0 fd e0 fd e0 fd e0 fd e0     ................
    3362:	fd e0 fd c0 fd a0 fd 80 fd 80 fd a0 fd e0 fe 20     ............... 
    3372:	fe 60 e5 c0 ee 40 f6 c3 f6 c9 c5 6a 51 e1 08 00     .`...@.....jQ...
    3382:	62 aa 00 00 00 00 00 00 00 00 00 00 00 00 00 00     b...............
	...
    33a2:	f7 ff f7 ff df 5e ad f9 9d 57 8c f5 74 53 63 8f     .....^...W..tSc.
    33b2:	94 b3 00 00 00 00 00 00 00 00 08 41 08 41 00 00     ...........A.A..
	...
    33d2:	08 01 08 00 00 00 29 41 29 03 20 a0 d5 c9 e5 e4     ......)A). .....
    33e2:	dc e0 f5 40 ec 80 fd 00 fd e3 f5 20 ed 20 f5 80     ...@....... . ..
    33f2:	fd 40 fd 40 fd 60 fd 80 f5 c1 fe 22 fe 83 fe c4     .@.@.`....."....
    3402:	ff 04 ff 45 ff 86 ff a6 ff a6 ff a6 ff 86 ff a5     ...E............
    3412:	ff a3 ff 83 ff 64 ff 24 fe c4 fe 83 fe 41 fe 00     .....d.$.....A..
    3422:	fd e0 fd e0 fd e0 fd e0 fd e0 fd e0 fd e0 fd e0     ................
    3432:	fd e0 fd e0 fe 01 fd e1 fd a2 fd 81 fd a0 fd e0     ................
    3442:	fe 80 fe 40 e5 e0 dd e0 ee a7 f6 ce 30 e0 62 86     ...@........0.b.
	...
    346e:	00 00 ff ff f7 df b6 19 8c f6 b6 7c b6 9c ae 5c     ...........|...\
    347e:	7c 94 9d 36 00 00 00 40 00 00 00 00 00 00 21 03     |..6...@......!.
    348e:	31 a6 00 20 00 20 00 00 00 00 00 00 00 00 00 00     1.. . ..........
    349e:	00 00 08 00 08 00 20 e0 31 40 18 20 a4 4a d5 a6     ...... .1@. .J..
    34ae:	cd 00 dc c0 f5 00 f4 c0 f4 e0 ec a0 fd 41 ed 20     .............A. 
    34be:	f5 80 fd 40 fd 40 fd 60 fd 80 f5 80 f5 a0 ed c0     ...@.@.`........
    34ce:	ed c0 f6 62 fe c3 ff 24 ff 65 ff 86 ff 86 ff 86     ...b...$.e......
    34de:	ff a5 ff a3 ff a4 ff 85 ff 65 ff 05 fe c4 fe 62     .........e.....b
    34ee:	fe 40 fe 00 fe 00 fe 00 fd e0 fd e0 fd c0 fd c1     .@..............
    34fe:	fd c0 fe 00 fd e0 fd a0 fd a1 fd c2 fd e2 fd e1     ................
    350e:	fd e0 f5 a0 fe 00 fe 40 fe 40 e6 00 f6 a7 c5 6a     .......@.@.....j
    351e:	41 80 00 00 00 00 00 00 00 00 00 00 00 00 00 00     A...............
	...
    353e:	ff ff ef df ad f9 8d 37 9d ba 9d fc 8d 7a 6c 55     .......7.....zlU
    354e:	9d 78 10 e4 00 20 00 00 00 00 10 a0 31 a4 5a c9     .x... ......1.Z.
    355e:	29 65 08 a2 00 00 00 01 00 00 00 00 08 00 08 00     )e..............
    356e:	08 00 31 03 41 82 18 00 6a 20 dd 89 cc a1 d4 c0     ..1.A...j ......
    357e:	dc c0 e4 c0 e4 e0 e4 e0 e4 e0 e5 00 e5 20 ed 40     ............. .@
    358e:	ed 20 f5 40 f5 40 f5 60 f5 60 f5 60 fd 80 fd a0     . .@.@.`.`.`....
    359e:	f5 a0 f5 c0 fe 01 fe 62 fe a3 ff 04 ff 45 ff a6     .......b.....E..
    35ae:	ff 85 ff a5 ff a5 ff 86 ff 65 ff 24 fe e3 fe a2     .........e.$....
    35be:	f6 40 f6 20 fe 00 fd e0 fd c0 fd a0 fd 80 fd a0     .@. ............
    35ce:	fd c0 fd c0 fd a1 fd a1 fd c0 fd e0 f6 00 f6 00     ................
    35de:	f5 e0 fe 00 fd a1 fd a0 fe 60 e5 e1 de 4d 08 00     .........`...M..
	...
    360a:	00 00 f7 df f7 ff c6 9c 9d 99 8d 59 7d 19 6c b8     ...........Y}.l.
    361a:	53 d4 85 16 4a cc 00 00 00 20 08 20 08 40 4a 26     S...J.... . .@J&
    362a:	42 06 31 c6 11 04 00 62 00 42 00 01 00 01 08 00     B.1....b.B......
    363a:	08 00 18 62 41 a5 10 00 59 c0 cc e7 c4 41 d4 a1     ...bA...Y....A..
    364a:	d4 a0 d4 a0 dc a0 dc c0 dc c1 dc e0 dc e0 e5 00     ................
    365a:	e5 20 e5 20 ed 40 ed 40 f5 40 f5 40 f5 40 fd 60     . . .@.@.@.@.@.`
    366a:	fd 80 fd 80 fd a0 fd c0 fd e0 fe 01 fe 41 fe 82     .............A..
    367a:	fe c3 ff 45 ff 65 ff 85 ff 85 ff 85 ff 44 ff 04     ...E.e.......D..
    368a:	fe e3 f6 61 f6 41 fe 20 fd e0 fd c0 fd c0 fd c0     ...a.A. ........
    369a:	fd c0 fd c0 fd c0 fd a1 fd a1 fd e0 fe 00 f6 20     ............... 
    36aa:	f6 20 f5 e0 fd c1 fd a3 fd 81 fe 00 ee 22 ac c7     . ..........."..
    36ba:	08 00 00 00 00 00 00 00 00 00 00 00 00 00 00 00     ................
	...
    36da:	ff ff f7 ff c6 bd 9d b9 8d 7a 85 5a 74 f9 5c 35     .........z.Zt.\5
    36ea:	95 77 84 72 00 41 00 00 10 40 10 60 5a a9 4a 48     .w.r.A...@.`Z.JH
    36fa:	29 66 31 c8 11 05 00 42 00 42 00 00 00 00 18 82     )f1....B.B......
    370a:	31 03 10 00 38 e0 ac 27 d5 07 bc 20 c4 40 cc 40     1...8..'... .@.@
    371a:	cc 60 d4 80 d4 a0 d4 a0 d4 a0 dc c0 dc e0 dc e0     .`..............
    372a:	e5 00 e5 20 ed 20 ed 20 f5 20 f5 40 f5 40 fd 60     ... . . . .@.@.`
    373a:	fd 80 fd 80 fd a0 f5 a0 f5 a0 f5 c0 f5 e0 f6 00     ................
    374a:	fe 82 fe a3 fe e4 ff 24 ff 45 ff 45 ff 24 ff 24     .......$.E.E.$.$
    375a:	fe c3 fe a2 fe 41 fe 00 fd e0 fd c0 fd c0 fd e0     .....A..........
    376a:	fd e0 fd e0 fd a1 fd a1 fd c0 fd e0 f6 00 f6 00     ................
    377a:	fd e0 fd a0 fd a2 fd 81 f5 a0 ee 46 6a e2 00 00     ...........Fj...
	...
    37a6:	00 00 ff ff ef df be 5b 95 99 95 ba 8d bb 85 7b     .......[.......{
    37b6:	6c 96 84 d5 94 d4 5a eb 08 20 00 00 39 a5 5a aa     l.....Z.. ..9.Z.
    37c6:	4a 28 29 66 29 a7 29 c8 29 87 18 e4 10 82 10 61     J()f).).)......a
    37d6:	20 c1 18 20 18 00 9b c8 b4 87 a3 80 c4 82 bc 00      .. ............
    37e6:	c4 20 c4 40 c4 60 cc 60 cc 80 d4 80 d4 a0 dc a0     . .@.`.`........
    37f6:	dc c0 dc e0 e5 00 e5 00 ed 20 ed 00 ed 20 f5 40     ......... ... .@
    3806:	f5 40 f5 40 f5 60 f5 60 f5 80 f5 80 f5 a0 f5 c0     .@.@.`.`........
    3816:	f5 e0 f5 e0 f6 00 fe 41 fe 82 fe c3 fe e3 ff 04     .......A........
    3826:	ff 24 ff 04 fe e3 fe a2 fe 41 fe 00 fd e0 fd e0     .$.......A......
    3836:	fd e0 fe 00 fd e0 fd c1 fd c1 fd c0 fd e0 fe 00     ................
    3846:	fd e0 fd e0 fd a0 fd c1 fd a2 f5 c3 e5 e9 52 01     ..............R.
	...
    3876:	ef bf ef df c6 bc 9d da 8d 9a 85 7a 7d 5a 6c b6     ...........z}Zl.
    3886:	6b f1 9d 14 ad 55 39 c7 00 00 41 e7 62 cb 4a 49     k....U9...A.b.JI
    3896:	42 09 18 e5 29 87 31 a7 08 40 08 60 29 22 18 40     B...).1..@.`)".@
    38a6:	20 40 8b 46 b4 48 a3 c3 ab c1 b3 e0 bc 00 c4 60      @.F.H.........`
    38b6:	bc 20 c4 40 c4 60 cc 60 cc 60 d4 80 d4 a0 dc a0     . .@.`.`.`......
    38c6:	dc c0 dc e0 dd 00 e5 00 e5 00 ed 00 ed 20 f5 20     ............. . 
    38d6:	f5 20 f5 40 f5 60 f5 80 f5 80 f5 a0 f5 c0 fd e0     . .@.`..........
    38e6:	f5 a0 fd a0 fd c0 fd e0 fe 21 fe 41 fe 82 fe a2     .........!.A....
    38f6:	fe e3 fe e3 fe c2 fe 81 fe 40 fe 20 fe 00 fd e0     .........@. ....
    3906:	fe 00 fe 00 fd c1 fd c1 fd c1 fd c0 fd e0 fd e0     ................
    3916:	fd c0 fd c0 fd a0 fd a2 f5 c7 d5 6b 5a 45 00 00     ...........kZE..
	...
    3942:	00 00 ff ff ef ff ae 1a 85 16 7c f7 75 18 75 18     ..........|.u.u.
    3952:	64 75 5b 8f 84 51 b5 b6 b5 b7 73 4e 41 c8 52 4a     du[..Q....sNA.RJ
    3962:	52 8a 29 66 42 29 4a 49 39 e6 29 43 08 20 08 00     R.)fB)JI9.)C. ..
    3972:	18 20 7a c4 b4 48 9b 63 9b 81 b3 e1 a3 80 b4 20     . z..H.c....... 
    3982:	b4 20 b4 00 bc 20 bc 40 c4 40 c4 40 cc 40 d4 60     . ... .@.@.@.@.`
    3992:	d4 80 d4 a0 d4 c0 d4 c0 dc e0 dc e0 e4 e0 ed 00     ................
    39a2:	ed 00 ed 20 f5 20 f5 40 f5 60 f5 60 f5 80 f5 a0     ... . .@.`.`....
    39b2:	fd a0 fd a0 fd a0 fd 80 fd a0 fd a0 fd e0 fe 00     ................
    39c2:	fe 20 fe 61 fe 61 fe 81 fe 81 fe 61 fe 40 fe 40     . .a.a.....a.@.@
    39d2:	fe 20 fe 00 fe 00 fd e1 fd c1 fd c1 fd c1 fd c0     . ..............
    39e2:	fd c0 fd a0 fd e0 fd a0 fd e2 dd 48 c5 0e 62 e9     ...........H..b.
	...
    3a12:	f7 ff e7 9f 9d b8 74 b5 7d 37 85 99 85 9a 74 f6     ......t.}7....t.
    3a22:	5b b0 63 af 7c 31 d6 dc de dc 7b f0 63 0d 5a ab     [.c.|1....{.c.Z.
    3a32:	6b 4d 7b ce 39 c5 00 00 10 40 10 40 31 00 8b a6     kM{.9....@.@1...
    3a42:	ac 27 82 c0 93 41 a3 81 9b 40 a3 80 ab c0 ab c0     .'...A...@......
    3a52:	ab e0 ac 00 b4 00 b4 20 bc 20 c4 20 cc 40 d4 60     ....... . . .@.`
    3a62:	cc 60 cc 80 d4 a0 d4 a0 dc a0 dc c0 e4 c0 e4 e0     .`..............
    3a72:	ed 00 ed 00 ed 20 ed 20 ed 40 ed 40 ed 60 f5 60     ..... . .@.@.`.`
    3a82:	fd 80 fd 80 fd 80 fd 80 fd a0 fd a0 fd c0 f5 e0     ................
    3a92:	f5 e0 f6 00 fe 20 fe 40 fe 40 fe 40 fe 40 fe 20     ..... .@.@.@.@. 
    3aa2:	fe 20 fe 20 fe 00 fd e0 fd c1 fd a1 fd a0 fd c0     . . ............
    3ab2:	fd c0 fd e0 f5 c0 f6 23 ac 07 c5 32 63 0b 00 00     .......#...2c...
	...
    3ade:	00 00 ef bf f7 ff d7 5e be dd bf 1e bf 3f bf 5f     .......^.....?._
    3aee:	b6 dd 9d f8 84 b3 32 29 42 6a 9d 36 c6 5a ad 77     ......2)Bj.6.Z.w
    3afe:	94 93 62 eb 20 c2 10 00 10 00 10 00 41 80 83 44     ..b. .......A..D
    3b0e:	83 22 7a a0 8a e0 9b 40 9b 40 9b 60 9b 60 9b 60     ."z....@.@.`.`.`
    3b1e:	a3 c0 a3 c0 a3 c0 ab e0 b3 e0 b4 00 c4 00 cc 00     ................
    3b2e:	cc 20 c4 40 c4 60 cc 80 cc 80 d4 80 d4 a0 dc c0     . .@.`..........
    3b3e:	dc c0 e4 c0 e4 e0 e5 00 ed 20 ed 20 ed 20 ed 40     ......... . . .@
    3b4e:	f5 40 f5 40 fd 40 fd 60 fd 80 fd a0 fd a0 fd a0     .@.@.@.`........
    3b5e:	f5 a0 f5 a0 f5 c0 fd e0 fe 00 fe 00 fe 20 fe 20     ............. . 
    3b6e:	fe 20 fe 20 fe 20 fe 00 fd e0 fd c1 fd a1 fd a0     . . . ..........
    3b7e:	fd a0 fd e0 fd c0 ed c0 f6 44 83 05 c5 75 5a ec     .........D...uZ.
    3b8e:	00 01 00 00 00 00 00 00 00 00 00 00 00 00 00 00     ................
	...
    3bae:	f7 ff e7 bf d7 3e be dc c7 1e bf 1f a6 7c a6 5b     .....>.......|.[
    3bbe:	8d 56 85 14 53 8e 09 25 00 42 19 26 21 25 00 00     .V..S..%.B.&!%..
    3bce:	08 00 18 20 10 00 41 20 72 a2 83 43 7a e0 72 80     ... ..A r..Cz.r.
    3bde:	82 c0 82 a0 82 c0 8a e0 93 00 9b 40 9b 60 9b 60     ...........@.`.`
    3bee:	9b 80 9b 80 a3 c0 ab c0 b3 c0 bb c0 c3 e0 c4 00     ................
    3bfe:	c4 20 bc 40 c4 60 c4 60 cc 60 cc 80 d4 80 d4 a0     . .@.`.`.`......
    3c0e:	dc a0 dc c0 e4 c0 e4 e0 e4 e0 e5 00 ed 20 ed 20     ............. . 
    3c1e:	f5 40 f5 40 f5 60 f5 60 f5 80 f5 80 f5 a0 fd c0     .@.@.`.`........
    3c2e:	fd c0 fd c0 fd c0 fd e0 fd e0 fd e0 fd e0 fe 00     ................
    3c3e:	fe 20 fe 20 fe 20 fe 00 fd e2 fd c2 fd c0 fd c0     . . . ..........
    3c4e:	fd e0 f5 a0 f6 40 c5 21 7b 06 c5 97 4a 4a 00 21     .....@.!{...JJ.!
	...
    3c7a:	00 00 ef bf df 7e c6 bc a5 d9 a5 f9 9d fa 8d 99     .....~..........
    3c8a:	95 b8 8d 76 74 92 5b cf 4b 0d 2a 09 08 c4 00 42     ...vt.[.K.*....B
    3c9a:	18 a2 10 20 49 a3 6a 84 8b 25 7a a1 72 60 7a c0     ... I.j..%z.r`z.
    3caa:	8b 20 82 c0 82 e0 8b 00 93 00 93 00 92 e0 8b 00     . ..............
    3cba:	8b 00 93 60 93 80 9b a0 a3 a0 ab a0 b3 a0 bb a0     ...`............
    3cca:	bb c0 bc 00 bc 20 bc 20 c4 40 c4 40 c4 60 cc 60     ..... . .@.@.`.`
    3cda:	cc 80 d4 80 d4 a0 dc c0 dc c0 dc e0 e4 e0 e5 00     ................
    3cea:	ed 20 ed 20 ed 40 ed 40 f5 60 f5 60 f5 60 f5 80     . . .@.@.`.`.`..
    3cfa:	f5 80 fd a0 fd a0 fd a0 fd c0 fd c0 fd c0 fd c0     ................
    3d0a:	fd e0 fe 00 fe 20 fe 20 fe 00 fd e1 fd c1 fd c0     ..... . ........
    3d1a:	fd c0 fd a0 f5 e0 ff 04 9c 20 83 aa c5 d8 31 a8     ......... ....1.
    3d2a:	00 01 00 00 00 00 00 00 00 00 00 00 00 00 00 00     ................
	...
    3d4a:	f7 ff ef ff c6 bc a5 b8 a5 f9 ae 3b ae 5b b6 bc     ...........;.[..
    3d5a:	b6 9a ae 7a 95 b7 7c d4 6c 32 53 2e 52 cb 6b 4c     ...z..|.l2S.R.kL
    3d6a:	94 0e 72 c7 7a c5 7a 82 82 c1 8b 01 82 e0 72 40     ..r.z.z.......r@
    3d7a:	7a 80 7a 80 7a 80 7a 80 82 80 82 a0 8a e0 93 40     z.z.z.z........@
    3d8a:	8b 20 8b 40 93 60 9b 80 a3 80 ab 80 b3 80 b3 a0     . .@.`..........
    3d9a:	b3 c0 b3 e0 b4 00 bc 00 bc 20 bc 20 c4 40 c4 60     ......... . .@.`
    3daa:	cc 60 cc 80 d4 80 d4 a0 dc a0 dc c0 dc e0 e5 00     .`..............
    3dba:	e5 00 e5 20 e5 40 e5 40 ed 40 ed 40 f5 60 f5 60     ... .@.@.@.@.`.`
    3dca:	f5 80 fd 80 fd 80 fd 80 fd a0 fd a0 fd a0 fd c0     ................
    3dda:	fd e0 fe 00 fe 00 fe 00 fd e1 fd e1 fd c0 fd c0     ................
    3dea:	fd c0 fe 21 ee 64 8b e1 bd 91 8c 32 18 e5 00 00     ...!.d.....2....
	...
    3e16:	00 00 e7 7d e7 7e a5 b7 74 32 74 52 74 53 74 33     ...}.~..t2tRtSt3
    3e26:	6c 53 a5 f8 be 9a 95 76 53 8f 53 4e 53 2d 42 6a     lS.....vS.SNS-Bj
    3e36:	42 07 52 26 30 c0 6a 22 72 62 72 40 72 60 82 e1     B.R&0.j"rbr@r`..
    3e46:	8b 22 83 21 83 01 82 c0 82 a0 82 80 82 a0 82 c0     .".!............
    3e56:	8a e0 82 e0 83 00 8b 20 93 20 93 40 9b 40 a3 60     ....... . .@.@.`
    3e66:	ab 60 ab a0 ab c0 ab c0 b3 e0 b3 e0 b4 00 bc 20     .`............. 
    3e76:	c4 20 c4 40 c4 60 cc 80 cc 80 d4 80 d4 a0 d4 c0     . .@.`..........
    3e86:	dc e0 dc e0 dd 00 dd 00 e5 20 e5 20 e5 20 ed 40     ......... . . .@
    3e96:	ed 40 f5 60 f5 60 fd 60 fd 80 fd 80 fd 80 fd a0     .@.`.`.`........
    3ea6:	fd a0 fd c0 fd e0 fe 00 fe 00 fd e0 fd e1 fd c0     ................
    3eb6:	fd c0 fe 20 f6 22 de 06 83 e3 d6 96 63 0c 00 01     ... ."......c...
    3ec6:	00 21 00 00 00 00 00 00 00 00 00 00 00 00 00 00     .!..............
	...
    3ee6:	f7 df ef 9f 8c 93 42 6b 42 6b 42 ac 4a ee 4a ed     ......BkBkB.J.J.
    3ef6:	53 0c 6b ef 5b 8e 4b 0d 5b 6e 53 2d 4a 6a 52 89     S.k.[.K.[nS-JjR.
    3f06:	62 87 18 00 49 00 72 43 82 c4 72 83 72 62 62 20     b...I.rC..r.rbb 
    3f16:	72 a1 72 a0 7a a1 82 c1 8a c2 8a c1 82 80 7a 60     r.r.z.........z`
    3f26:	82 a0 82 c0 82 e0 83 00 8b 00 93 20 9b 20 a3 41     ........... . .A
    3f36:	a3 60 a3 80 ab a1 ab c1 ab c0 b3 e0 b4 00 bc 20     .`............. 
    3f46:	bc 20 bc 40 c4 60 c4 60 cc 60 cc 80 cc a0 d4 c0     . .@.`.`.`......
    3f56:	d4 c0 d4 c0 dc e0 dc e0 e5 00 e5 00 e5 00 ed 20     ............... 
    3f66:	f5 40 f5 40 f5 60 fd 60 fd 60 fd 80 fd 80 fd 80     .@.@.`.`.`......
    3f76:	fd a0 fd a0 fd e0 fd e0 fd e0 fd c0 fd c0 fd c0     ................
    3f86:	fe 00 f6 44 d6 0a 7b c7 b5 d3 52 ca 00 00 00 01     ...D..{...R.....
	...
    3fb2:	00 00 de fc ef 9f 9c f5 5b 2e 5b 4e 52 cd 32 0a     ........[.[NR.2.
    3fc2:	19 26 42 28 5a eb 52 ec 4a ab 42 6a 31 c8 29 45     .&B(Z.R.J.Bj1.)E
    3fd2:	39 86 28 c1 10 00 59 a2 8b 27 72 64 49 60 62 23     9.(...Y..'rdI`b#
    3fe2:	7b 26 6a a2 6a a1 6a 81 72 81 82 82 82 a2 82 a1     {&j.j.j.r.......
    3ff2:	82 a0 7a 80 7a a0 82 c0 82 c0 82 e0 8a e0 93 00     ..z.z...........
    4002:	93 21 9b 40 9b 40 a3 60 a3 80 ab a0 ab c0 ab c0     .!.@.@.`........
    4012:	b3 e0 b4 00 b4 00 bc 20 bc 40 c4 40 c4 60 c4 80     ....... .@.@.`..
    4022:	cc 80 cc 80 d4 a0 d4 a0 dc c0 dc c0 dc e0 e4 e0     ................
    4032:	e5 00 ed 20 ed 20 ed 20 f5 40 f5 60 f5 60 fd 80     ... . . .@.`.`..
    4042:	fd 80 fd 60 fd 80 fd a0 fd c0 fd c0 fd c0 fd c0     ...`............
    4052:	fd c0 f5 e0 fe c8 8b c4 ad 4f 94 f0 10 e2 10 62     .........O.....b
	...
    4082:	f7 bf f7 bf 6b 6f 00 42 00 02 00 02 00 43 00 01     ....ko.B.....C..
    4092:	00 00 08 20 08 41 00 00 00 01 00 01 00 00 00 00     ... .A..........
    40a2:	18 20 38 e1 7a c8 ac 2d 59 e4 10 00 10 00 18 60     . 8.z..-Y......`
    40b2:	62 a4 6a c3 7a c4 7a a3 7a 83 82 62 82 82 8a c1     b.j.z.z.z..b....
    40c2:	82 a0 82 c0 82 c0 7a c0 7a a0 82 c0 8a c0 8a e0     ......z.z.......
    40d2:	92 e0 93 00 9b 20 9b 40 9b 60 a3 80 a3 a0 ab c0     ..... .@.`......
    40e2:	ab c0 ab e0 b4 00 b4 00 bc 20 bc 20 bc 40 c4 60     ......... . .@.`
    40f2:	cc 60 cc 60 d4 80 d4 80 d4 a0 dc a0 dc c0 e4 e0     .`.`............
    4102:	e5 00 e5 00 e5 00 ed 20 ed 40 ed 60 ed 60 f5 60     ....... .@.`.`.`
    4112:	fd 40 fd 40 fd 80 f5 a0 f5 c0 fd c0 fd a0 fd c0     .@.@............
    4122:	f6 01 f6 68 52 00 d6 b7 5b 29 00 20 10 62 00 01     ...hR...[). .b..
	...
    413e:	00 00 00 20 00 00 00 00 00 00 00 00 00 00 00 00     ... ............
    414e:	00 00 df 1c ef 5e 6b 2d 00 01 00 01 00 01 00 01     .....^k-........
    415e:	00 00 18 41 08 00 08 00 10 62 08 62 08 42 08 21     ...A.....b.b.B.!
    416e:	08 00 49 64 6a 27 7a a8 a3 ac 59 a4 18 00 08 00     ..Idj'z...Y.....
    417e:	08 00 08 00 20 a0 51 c1 6a 64 72 84 7a 63 7a 62     .... .Q.jdr.zczb
    418e:	7a 82 82 c1 82 c0 82 c0 7a a0 7a a0 7a a0 82 a0     z.......z.z.z...
    419e:	82 c0 8a c0 8a e0 93 00 93 20 93 20 9b 40 9b 60     ......... . .@.`
    41ae:	a3 80 a3 a0 ab c0 ab c0 b3 e0 b3 e0 b4 00 bc 20     ............... 
    41be:	bc 20 c4 40 cc 40 cc 60 d4 80 d4 80 d4 80 dc a0     . .@.@.`........
    41ce:	dc a0 e4 c0 e4 c0 e4 e0 e5 00 e5 20 e5 40 ed 40     ........... .@.@
    41de:	ed 40 fd 40 fd 40 f5 60 f5 80 fd a0 fd a0 fd a1     .@.@.@.`........
    41ee:	fd c1 f6 23 bc e4 73 07 ce 59 08 c1 19 03 00 00     ...#..s..Y......
	...
    420e:	00 40 00 20 00 00 00 00 00 00 00 00 00 00 00 00     .@. ............
    421e:	ef 3d d6 5a 83 8e 18 20 10 20 31 65 10 a1 00 20     .=.Z... . 1e... 
    422e:	10 20 08 00 08 00 08 20 00 00 00 00 08 00 10 00     . ..... ........
    423e:	8b 0b 38 20 71 c5 69 85 9b 6c 18 00 10 00 10 20     ..8 q.i..l..... 
    424e:	08 00 18 20 10 00 20 60 39 22 72 c7 72 a5 6a 63     ... .. `9"r.r.jc
    425e:	72 82 72 80 82 c0 8b 00 82 e0 82 e0 82 e0 7a a0     r.r...........z.
    426e:	7a a0 82 c0 8a e0 8b 00 8b 00 8b 20 93 40 a3 80     z.......... .@..
    427e:	a3 80 a3 80 ab a0 ab a0 ab a0 b3 a0 bb c0 bc 00     ................
    428e:	bc 20 bc 40 c4 40 c4 40 cc 40 d4 60 d4 61 dc 81     . .@.@.@.@.`.a..
    429e:	e4 81 e4 a1 e4 c1 e4 e0 e4 e0 e5 00 e5 20 ed 40     ............. .@
    42ae:	ed 40 ed 00 fd a2 ec e0 fd a0 f5 60 f5 60 f6 04     .@.........`.`..
    42be:	e6 25 62 60 d6 36 5a 8d 08 44 00 01 10 a0 00 20     .%b`.6Z..D..... 
	...
    42da:	00 00 00 40 00 20 00 00 00 00 08 00 00 00 00 00     ...@. ..........
    42ea:	00 00 e7 1c ef 1c 9c 10 18 00 28 81 83 6b 7b ab     ..........(..k{.
    42fa:	5a c7 7b 2a 83 2a 5a 47 41 c5 29 22 31 42 30 c1     Z.{*.*ZGA.)"1B0.
    430a:	38 c0 40 80 71 83 79 a4 71 63 a3 4a 69 e4 10 00     8.@.q.y.qc.Ji...
    431a:	10 00 10 00 10 00 08 00 18 60 08 00 10 40 39 62     .........`...@9b
    432a:	72 e7 7a e5 72 a2 72 60 7a 80 7a a0 72 80 7a a0     r.z.r.r`z.z.r.z.
    433a:	82 e0 82 e0 82 a0 7a 60 7a 80 8a e0 93 20 8b 00     ......z`z.... ..
    434a:	8a c0 93 40 9b 40 a3 60 a3 80 ab a0 ab a0 b3 c0     ...@.@.`........
    435a:	b3 c0 b4 00 b4 20 bc 20 bc 20 c4 20 cc 20 d4 41     ..... . . . . .A
    436a:	d4 41 dc 61 dc 81 e4 a0 dc a0 dc c0 e4 e0 e5 00     .A.a............
    437a:	e5 20 e5 00 f5 60 e4 c0 f5 60 fd 60 f5 60 e5 20     . ...`...`.`.`. 
    438a:	f6 25 c5 45 62 80 d6 58 00 02 18 c7 00 43 00 20     .%.Eb..X.....C. 
    439a:	08 80 00 00 00 00 00 00 00 00 00 00 00 00 00 00     ................
    43aa:	00 40 00 20 00 00 00 00 08 00 00 00 00 00 00 00     .@. ............
    43ba:	ce 59 e6 db bd 34 59 e7 38 c1 39 01 28 e0 41 61     .Y...4Y.8.9.(.Aa
    43ca:	62 23 a4 0b 83 27 49 a1 62 64 b4 ce a3 ea 69 a1     b#...'I.bd....i.
    43da:	48 60 71 20 71 20 92 23 bb c9 d4 ee 6a 03 28 80     H`q q .#....j.(.
    43ea:	18 40 08 00 00 00 10 60 00 00 10 40 20 80 10 00     .@.....`...@ ...
    43fa:	41 20 72 a4 82 c4 6a 00 72 61 8b 23 7a e2 72 40     A r...j.ra.#z.r@
    440a:	82 a0 8a a0 8a a0 82 a0 82 80 82 a0 82 c0 8a e0     ................
    441a:	8a e0 8b 00 93 40 9b 60 9b 80 a3 a0 a3 a0 a3 a0     .....@.`........
    442a:	a3 c0 ab e0 b3 e0 b4 00 bc 00 bc 20 c4 20 cc 40     ........... . .@
    443a:	cc 40 d4 60 d4 80 d4 80 d4 a0 dc a0 dc c0 dc e0     .@.`............
    444a:	e5 01 e5 00 ed 00 f5 40 ed 00 f5 a0 d5 00 f6 46     .......@.......F
    445a:	72 80 b4 ef 31 65 18 c4 00 02 00 01 00 00 00 20     r...1e......... 
	...
    4476:	00 00 00 20 00 20 00 00 08 00 08 00 00 00 00 00     ... . ..........
    4486:	00 00 e7 5c d6 58 ac 70 82 c9 72 06 49 21 38 e0     ...\.X.p..r.I!8.
    4496:	62 23 59 60 69 c1 8b 26 49 60 28 40 a4 0a e5 b0     b#Y`i..&I`(@....
    44a6:	61 40 58 80 68 c0 aa 83 b3 26 bb 87 d4 cd b4 0a     a@X.h....&......
    44b6:	72 85 62 87 41 c5 49 e6 4a 07 31 64 41 c5 49 a5     r.b.A.I.J.1dA.I.
    44c6:	28 80 28 20 49 00 59 80 72 42 8a c4 72 42 6a 01     (.( I.Y.rB..rBj.
    44d6:	8b 04 82 60 8a a1 8a c1 82 a1 7a 80 7a 60 82 a0     ...`......z.z`..
    44e6:	8a e1 7a c0 82 e0 8b 00 8b 20 8b 40 93 60 93 80     ..z...... .@.`..
    44f6:	9b 80 a3 80 a3 a0 ab c1 ab c0 b3 e0 b4 00 bc 20     ............... 
    4506:	c4 40 c4 40 c4 40 cc 60 cc 80 cc 80 d4 80 d4 a0     .@.@.@.`........
    4516:	dc a1 e4 c1 e4 e0 ed 20 e4 e0 e5 20 dd 20 ee 03     ....... ... . ..
    4526:	bc c3 49 40 6a aa 08 20 18 e3 00 00 00 00 00 20     ..I@j.. ....... 
	...
    4546:	00 20 00 00 00 00 08 00 08 00 00 00 00 00 00 00     . ..............
    4556:	d6 da d6 57 a4 0e 72 47 7a 05 71 c3 69 c2 72 23     ...W..rGz.q.i.r#
    4566:	8a c6 7a 24 82 a6 7a a6 b4 6d ac 2c 9b 49 61 20     ..z$..z..m.,.Ia 
    4576:	60 e0 71 20 a2 64 92 03 ab 27 d4 ae a3 68 61 a2     `.q .d...'...ha.
    4586:	41 00 20 80 49 83 73 2a 73 0a 51 e5 41 43 38 c0     A. .I.s*s.Q.AC8.
    4596:	38 40 61 61 59 00 48 80 69 60 7a 23 7a 23 82 63     8@aaY.H.i`z#z#.c
    45a6:	8a c2 82 80 7a 60 7a 80 82 c0 82 e0 7a c0 72 80     ....z`z.....z.r.
    45b6:	7a a0 7a c0 82 c0 82 c0 82 e0 8b 00 93 20 93 41     z.z.......... .A
    45c6:	9b 41 a3 61 a3 81 a3 a1 ab c0 ab e0 b4 20 b4 40     .A.a......... .@
    45d6:	bc 40 bc 40 c4 60 c4 60 c4 60 cc 60 cc 81 d4 82     .@.@.`.`.`.`....
    45e6:	d4 40 ed 02 cc 40 e5 00 e5 40 cc e0 f6 69 59 c0     .@...@...@...iY.
    45f6:	38 e1 18 42 29 05 00 00 00 40 00 20 00 00 00 00     8..B)....@. ....
	...
    461a:	08 00 00 00 00 00 00 00 00 20 de f9 f7 3a cd 32     ......... ...:.2
    462a:	a3 4a 9a c7 8a 24 79 e2 71 a1 82 03 a3 28 8a 86     .J...$y.q....(..
    463a:	61 82 8a e7 48 a0 61 20 dc ce aa c6 60 60 60 40     a...H.a ....```@
    464a:	89 a1 a2 a6 ed 30 9a e7 48 a0 7a c7 6a 66 62 25     .....0..H.z.jfb%
    465a:	51 e4 51 a4 20 20 20 00 40 a0 8a c8 69 82 50 80     Q.Q.   .@...i.P.
    466a:	60 e0 79 a3 69 41 69 41 82 24 82 83 7a 81 7a a1     `.y.iAiA.$..z.z.
    467a:	7a a1 7a c1 7a c0 7a c0 7a a0 7a c0 7a c0 7a a0     z.z.z.z.z.z.z.z.
    468a:	82 80 82 80 8a a1 92 c2 92 e2 93 01 9b 21 9b 41     .............!.A
    469a:	a3 80 a3 a0 a3 c0 a3 e0 ac 00 ac 20 b4 20 bc 40     ........... . .@
    46aa:	bc 40 c4 40 c4 40 cc 41 d4 62 dc 82 cc 00 d4 80     .@.@.@.A.b......
    46ba:	e5 20 d5 00 ee 26 9b c4 20 20 18 20 39 87 00 01     . ...&..  . 9...
    46ca:	00 40 00 20 00 40 00 00 00 01 00 00 00 00 00 00     .@. .@..........
	...
    46e6:	00 00 08 00 00 00 00 00 00 00 00 20 ef 7b e6 97     ........... .{..
    46f6:	a3 cc 92 a7 b3 49 b3 27 aa e5 a2 a4 aa e6 92 44     .....I.'.......D
    4706:	aa e7 92 85 50 40 58 c0 aa e7 c3 89 d3 a9 89 20     ....P@X........ 
    4716:	91 60 ba c6 a2 44 dc 2c 92 24 61 00 38 60 6a 65     .`...D.,.$a.8`je
    4726:	72 a7 49 83 49 83 18 00 20 00 69 e5 9b 29 9a e8     r.I.I... .i..)..
    4736:	82 04 69 21 69 21 79 83 71 62 59 00 61 a2 6a 22     ..i!i!y.qbY.a.j"
    4746:	72 83 7a a3 72 a1 72 80 7a c0 83 00 7a c0 82 c0     r.z.r.r.z...z...
    4756:	82 a0 82 80 8a 60 8a 60 92 81 92 81 92 a0 92 e0     .....`.`........
    4766:	93 00 9b 40 9b 60 9b 80 9b c0 a3 e0 a3 e0 ab e0     ...@.`..........
    4776:	b4 00 b4 00 bc 00 bc 20 c4 20 cc 21 dc a3 bb a0     ....... . .!....
    4786:	dd 01 d4 e0 c4 e1 c5 27 30 a0 18 40 20 a2 18 e3     .......'0..@ ...
    4796:	00 41 00 00 00 20 00 20 00 00 00 01 00 00 00 00     .A... . ........
	...
    47b6:	08 00 00 00 00 00 00 00 00 20 f7 bc ff 9b cc f0     ......... ......
    47c6:	ab 29 b3 28 bb 06 bb 46 bb 46 b3 26 bb 47 9a 85     .).(...F.F.&.G..
    47d6:	92 44 58 a0 9a 64 b3 27 bb 47 d3 a9 e4 2a db c9     .DX..d.'.G...*..
    47e6:	b2 a4 cb 68 e4 6c 60 80 38 00 69 c3 6a 66 49 82     ...h.l`.8.i.jfI.
    47f6:	41 21 72 c8 30 80 18 00 6a 05 9b 09 9a e8 92 86     A!r.0...j.......
    4806:	79 82 58 a0 58 c0 69 22 61 42 51 01 51 21 59 81     y.X.X.i"aBQ.Q!Y.
    4816:	61 e2 72 62 7a a2 72 a0 72 80 7a c0 82 c0 82 c0     a.rbz.r.r.z.....
    4826:	8a a0 8a 80 8a 60 92 60 8a 80 8a 80 8a a0 92 e0     .....`.`........
    4836:	93 00 93 20 93 40 9b 80 9b 80 9b a0 a3 c0 ab c0     ... .@..........
    4846:	ab e0 b3 e0 bc 00 c4 00 c4 00 bb c0 d4 a2 bc 20     ............... 
    4856:	c4 a1 cd 47 49 80 10 00 20 84 29 44 00 00 00 00     ...GI... .)D....
    4866:	00 60 00 20 00 00 00 01 00 01 00 00 00 00 00 00     .`. ............
	...
    4882:	00 00 08 00 00 00 00 00 00 00 00 20 f7 bc ff 9a     ........... ....
    4892:	cc d0 ab 49 c3 89 c3 47 bb 46 c3 a7 b3 26 c3 e9     ...I...G.F...&..
    48a2:	cc 4a c4 0a bb a8 bb a8 bb a8 bb a7 c3 87 cb c7     .J..............
    48b2:	cb a7 d3 e8 e4 cc e4 cd a2 e6 50 c0 69 e3 49 62     ..........P.i.Ib
    48c2:	41 01 38 e1 72 c9 41 02 38 c0 61 e4 9b 29 92 a7     A.8.r.A.8.a..)..
    48d2:	82 24 9a a6 9a a7 82 04 8a 46 8a 87 8a 87 69 63     .$.......F....ic
    48e2:	58 e1 50 e0 61 61 48 e0 72 42 7a a3 72 81 6a 40     X.P.aaH.rBz.r.j@
    48f2:	8b 01 7a 80 82 a0 8a e0 82 80 92 e0 82 80 8a 80     ..z.............
    4902:	8a c0 8a c0 8a c0 8a e0 93 20 9b 81 93 40 9b 60     ......... ...@.`
    4912:	a3 a0 ab c0 b3 e0 b3 e0 bb e0 bb e0 bb e0 bc 21     ...............!
    4922:	bc 61 bc a5 6a 42 20 60 08 00 31 46 00 41 00 20     .a..jB `..1F.A. 
    4932:	00 40 00 20 00 00 00 01 00 01 00 01 00 00 00 00     .@. ............
	...
    4952:	08 00 00 00 00 00 00 20 00 20 f7 bc ff bb d5 51     ....... . .....Q
    4962:	b3 ab cb ca c3 88 b3 05 ab 05 b3 46 bb c8 c4 09     ...........F....
    4972:	c3 e9 c3 e9 c4 2a c4 2a c3 e9 cc 29 d4 29 c3 e7     .....*.*...).)..
    4982:	bb a6 cc 29 dc cc d4 8c bb ca 9b 49 51 62 28 20     ...).......IQb( 
    4992:	28 20 6a 25 30 60 20 00 28 00 59 00 8a 44 a2 e6     ( j%0` .(.Y..D..
    49a2:	ab 07 9a a5 92 64 9a a6 92 86 8a 04 8a 24 92 46     .....d.......$.F
    49b2:	8a 46 71 a3 48 80 20 00 69 e3 93 68 72 83 6a 40     .Fq.H. .i..hr.j@
    49c2:	6a 40 7b 00 8b 60 72 c0 72 80 82 80 82 80 82 a0     j@{..`r.r.......
    49d2:	8a c0 8a c0 8a c0 8a e0 8b 00 9b 61 9b 40 93 20     ...........a.@. 
    49e2:	9b 20 a3 60 ab a0 b3 e0 b3 e0 ab c0 ac 01 c5 07     . .`............
    49f2:	72 a1 20 60 08 00 29 25 10 83 00 21 00 20 00 40     r. `..)%...!. .@
    4a02:	00 20 00 00 00 01 00 01 00 01 00 00 00 00 00 00     . ..............
	...
    4a1e:	00 00 08 00 00 00 00 00 00 00 00 20 ff fe ff dc     ........... ....
    4a2e:	cd 11 a3 29 b3 69 c3 a9 c3 e9 c4 09 ab 26 bb 87     ...).i.......&..
    4a3e:	c3 e9 c3 ea cc 0a cc 0a bb a8 ab 26 ab 05 b3 66     ...........&...f
    4a4e:	bb 87 b3 66 b3 46 bb 88 cc 0a cc 4c e5 0e c4 2b     ...f.F.....L...+
    4a5e:	9b 07 50 c0 48 a0 38 20 61 20 79 c1 92 42 cb c7     ..P.H.8 a y..B..
    4a6e:	dc 49 dc 69 e4 8a e4 8b bb 87 79 60 cb 85 bb 04     .I.i......y`....
    4a7e:	a2 62 a2 84 a2 c7 9b 0a 20 00 59 65 7a ca 7b 2a     .b...... .Yez.{*
    4a8e:	6a c6 6a e5 5a a1 52 60 5a a0 83 a1 93 61 8b 00     j.j.Z.R`Z....a..
    4a9e:	82 a0 7a 60 7a 40 7a 60 82 80 82 a0 8a c0 93 00     ..z`z@z`........
    4aae:	9b 20 9b 60 a3 60 a3 60 a3 80 9b 80 b4 62 b4 64     . .`.`.`.....b.d
    4abe:	72 82 28 60 08 00 18 84 08 62 00 00 00 21 00 20     r.(`.....b...!. 
    4ace:	00 20 00 00 00 00 00 00 00 01 00 01 00 00 00 00     . ..............
	...
    4aee:	08 00 00 00 00 00 00 00 00 20 ff fe ff bc cd 52     ......... .....R
    4afe:	a3 6a b3 6a bb aa bb c9 b3 87 bb 87 c3 a8 c3 a9     .j.j............
    4b0e:	c3 a9 c3 89 c3 88 b3 47 aa e5 ab 05 c3 c8 dc 6a     .......G.......j
    4b1e:	dc 6a c3 c8 b3 27 b3 27 bb 69 a2 a4 b3 67 d4 8b     .j...'.'.i...g..
    4b2e:	cc 2a d4 ac d4 ac dc cc c3 e8 d4 07 cb c6 b2 e2     .*..............
    4b3e:	b2 e3 d3 e7 e4 69 bb 46 71 00 9a 20 c3 42 cb 85     .....i.Fq.. .B..
    4b4e:	c3 87 bb 8a c4 2f 38 41 59 87 c5 15 8b 8f 10 20     ...../8AY...... 
    4b5e:	21 01 52 a5 6b 66 5a e2 5a c1 6a 60 72 80 7a a0     !.R.kfZ.Z.j`r.z.
    4b6e:	82 c0 82 c1 8a c1 82 a0 82 60 82 60 8a c0 93 00     .........`.`....
    4b7e:	93 20 8b 20 93 20 9b 80 9b c1 a4 23 7a e1 10 00     . . . .....#z...
    4b8e:	08 00 20 c5 21 26 00 00 00 00 00 00 00 00 00 00     .. .!&..........
    4b9e:	00 00 00 00 00 00 00 01 00 01 00 00 00 00 00 00     ................
	...
    4bb6:	00 20 00 00 00 00 08 00 00 00 00 00 00 00 00 20     . ............. 
    4bc6:	ff fe ff dd d5 94 ab ed b3 cc bc 0c c4 6c bc 2a     .............l.*
    4bd6:	cb c9 cb a8 cb 67 c3 06 ba e6 c3 27 cb 88 d3 c9     .....g.....'....
    4be6:	d3 c8 d4 09 dc 4a dc 29 cb 88 b2 e6 ba c6 c3 48     .....J.).......H
    4bf6:	d3 e9 b3 25 bb a8 cc 4a d4 8b bb e8 bb c7 b3 86     ...%...J........
    4c06:	c3 a6 cb a6 c3 86 dc 28 dc 29 bb 46 9a 42 71 20     .......(.).F.Bq 
    4c16:	aa e1 c3 a3 c3 c5 c4 08 bb eb bc 4e 7a aa 6a 8b     ...........Nz.j.
    4c26:	e6 5b b5 57 00 00 00 00 10 81 21 22 39 e4 62 e6     .[.W......!"9.b.
    4c36:	62 83 72 c3 7a c3 7a a2 7a 81 7a 80 82 80 82 80     b.r.z.z.z.z.....
    4c46:	8a c0 82 80 7a 60 7a 80 7a c0 83 22 8b 83 93 a5     ....z`z.z.."....
    4c56:	51 e0 18 20 10 00 08 22 18 e4 00 00 00 21 00 00     Q.. ...".....!..
	...
    4c72:	00 00 00 01 00 00 00 00 00 00 00 00 00 00 00 00     ................
    4c82:	00 00 00 20 00 00 00 00 08 00 00 00 00 00 00 00     ... ............
    4c92:	00 00 ff ff f7 7c c5 33 93 4b 82 a8 7a 86 82 e7     .....|.3.K..z...
    4ca2:	7a 85 a3 07 ab 07 ab 07 aa c7 a2 a6 a2 a7 ab 07     z...............
    4cb2:	b3 48 cc 2a bb e9 b3 a8 b3 88 ab 48 ab 28 bb 4a     .H.*.......H.(.J
    4cc2:	c3 cb b3 68 ab 88 bc 2a bc 2b a3 a9 93 06 a3 67     ...h...*.+.....g
    4cd2:	ab a8 b3 c9 b3 87 a3 06 9a e6 82 03 61 20 71 c3     ............a q.
    4ce2:	8a 85 a3 45 b3 a6 b3 e8 b4 0a 82 c6 6a 26 8b 8d     ...E........j&..
    4cf2:	a4 72 ff 7e e6 dc 00 00 00 00 00 00 00 00 10 61     .r.~...........a
    4d02:	29 02 5a 25 6a a5 72 e5 72 c3 72 81 7a a0 82 c0     ).Z%j.r.r.r.z...
    4d12:	82 a0 82 c0 7a a0 7a c0 8b 23 8b 85 7b 24 5a 21     ....z.z..#..{$Z!
    4d22:	39 40 10 00 18 60 28 e4 10 83 00 41 00 20 00 20     9@...`(....A. . 
    4d32:	00 00 00 00 00 00 00 01 00 01 00 00 00 00 00 00     ................
	...
    4d52:	00 20 00 20 00 00 00 00 08 00 00 00 00 00 00 00     . . ............
    4d62:	ff fe ff fe ff 5c ff 3b ff 19 fe f8 ff 18 f6 d7     .....\.;........
    4d72:	ff 18 ff 3a ff 7c ff 9c ff 5b ff 1a fe f9 ff 19     ...:.|...[......
    4d82:	ff 7a ff 59 ff 59 ff 59 ff 3a ff 3b ff 5c ff 7c     .z.Y.Y.Y.:.;.\.|
    4d92:	ff 5a ff bb ff 9b f7 19 f7 19 ff 9c ff 9b f7 19     .Z..............
    4da2:	ff 5a ff 5a ff 1a ff 5b ff 1b ee bb ff 5e ff 9f     .Z.Z...[.....^..
    4db2:	ff 5c fe fa fe b9 ff bd ff 9c f7 1a ff 9c f7 7b     .\.............{
    4dc2:	ff bd ff bd 08 20 08 20 08 00 08 00 08 00 08 00     ..... . ........
    4dd2:	08 00 20 a0 49 c2 62 83 7b 03 8b 43 8b 20 82 c0     .. .I.b.{..C. ..
    4de2:	7a a0 7a c0 83 01 83 23 72 c4 49 c1 20 80 08 00     z.z....#r.I. ...
    4df2:	08 01 31 26 10 82 00 40 00 20 00 a2 00 20 00 20     ..1&...@. ... . 
    4e02:	00 00 00 00 00 00 00 01 00 01 00 00 00 20 00 20     ............. . 
	...
    4e1e:	00 00 00 20 00 00 00 00 00 00 00 00 00 00 00 00     ... ............
    4e2e:	00 00 ff ff ff ff ff be ff de ff dd ff bc ff fc     ................
    4e3e:	ff fd ff fe ff fe ff fe ff df ff be ff be ff ff     ................
    4e4e:	ff fe ff fe ff fe ff fe ff fe ff ff ff ff ff ff     ................
    4e5e:	ff ff ff de ff fe ff de ff fe ff ff ff ff ff ff     ................
    4e6e:	ff ff ff de ff ff ff ff ff df ff df ff df ff ff     ................
    4e7e:	ff 9f ff 9f ff bf ff bf ff df ff de ff fe ff fd     ................
    4e8e:	ff fd ff fd ff fd 00 00 08 00 08 00 10 00 10 00     ................
    4e9e:	10 00 08 00 08 00 10 20 18 60 31 20 5a 20 72 c2     ....... .`1 Z r.
    4eae:	7b 02 7b 02 72 e2 62 41 39 20 10 00 08 00 08 20     {.{.r.bA9 ..... 
    4ebe:	20 a3 39 89 00 02 00 00 00 20 00 20 00 20 08 a1      .9...... . . ..
    4ece:	00 20 00 00 00 00 00 00 00 00 00 01 00 00 00 20     . ............. 
    4ede:	00 20 00 00 00 00 00 00 00 00 00 00 00 00 00 00     . ..............
	...
    4efe:	94 92 94 91 94 91 94 71 9c 71 9c 71 94 91 94 91     .......q.q.q....
    4f0e:	94 71 94 71 94 71 94 71 94 71 94 71 94 71 94 71     .q.q.q.q.q.q.q.q
    4f1e:	8c 91 8c 91 8c 91 8c 91 8c 71 8c 71 94 71 94 71     .........q.q.q.q
    4f2e:	94 71 94 71 94 71 8c 91 8c 71 8c 71 8c 71 94 71     .q.q.q...q.q.q.q
    4f3e:	94 71 94 71 94 71 94 71 94 72 94 72 8c 72 94 72     .q.q.q.q.r.r.r.r
    4f4e:	94 72 94 72 94 71 94 71 94 71 94 71 94 71 8c 91     .r.r.q.q.q.q.q..
    4f5e:	94 b1 8c 71 08 61 00 00 10 61 00 00 08 00 00 00     ...q.a...a......
    4f6e:	00 00 00 00 08 20 10 81 18 a0 10 60 10 40 10 60     ..... .....`.@.`
    4f7e:	10 40 08 00 08 00 00 00 18 80 20 e2 20 e3 18 c3     .@........ . ...
	...
    502e:	18 e3 00 00 00 00 08 61 00 00 00 20 00 20 00 00     .......a... . ..
    503e:	00 00 00 00 00 20 08 61 08 61 10 82 18 e3 39 e7     ..... .a.a....9.
    504e:	31 86 18 e3 10 a2 10 a2 10 82 00 20 00 00 00 00     1.......... ....
	...
    50fa:	00 00 08 41 00 00 08 41 08 41 00 00 00 00 00 00     ...A...A.A......
    510a:	00 20 00 00 00 00 00 00 00 00 00 00 00 20 10 82     . ........... ..
    511a:	10 82 08 61 00 00 00 00 00 00 00 00 00 00 00 00     ...a............
	...
    51c6:	00 00 08 41 00 00 00 00 00 00 00 00 00 00 00 00     ...A............
    51d6:	00 00 00 20 00 00 00 00 00 00 00 00 00 00 00 00     ... ............
	...
    529e:	00 00 08 41 00 00 00 00 00 00 00 00 00 00 00 20     ...A........... 
    52ae:	00 20 00 00 00 00 00 00 00 20 00 20 00 20 00 00     . ....... . . ..
	...
    5362:	00 00 00 20 00 00 08 61 08 41 00 00 00 00 00 00     ... ...a.A......
	...
    5382:	00 20 00 00 00 00 00 00 00 00 00 00 00 00 00 00     . ..............
    5392:	00 20 00 00 00 00 00 00 00 00 00 00 00 00 00 00     . ..............
	...
    543e:	00 00 00 20 00 00 00 00 00 00 00 00 00 00 00 00     ... ............
	...

00005490 <english>:
	...
    54a4:	18 3c 3c 3c 18 18 00 18 18 00 00 00 00 00 00 00     .<<<............
    54b4:	66 66 66 00 00 00 00 00 00 00 00 00 00 00 00 00     fff.............
    54c4:	36 36 7f 36 36 36 7f 36 36 00 00 00 00 00 18 18     66.666.66.......
    54d4:	3c 66 60 30 18 0c 06 66 3c 18 18 00 00 00 00 70     <f`0...f<......p
    54e4:	d8 da 76 0c 18 30 6e 5b 1b 0e 00 00 00 00 00 00     ..v..0n[........
    54f4:	38 6c 6c 38 60 6f 66 66 3b 00 00 00 00 00 00 00     8ll8`off;.......
    5504:	18 18 18 00 00 00 00 00 00 00 00 00 00 00 00 00     ................
    5514:	0c 18 18 30 30 30 30 30 18 18 0c 00 00 00 00 00     ...00000........
    5524:	30 18 18 0c 0c 0c 0c 0c 18 18 30 00 00 00 00 00     0.........0.....
    5534:	00 00 36 1c 7f 1c 36 00 00 00 00 00 00 00 00 00     ..6...6.........
    5544:	00 00 18 18 7e 18 18 00 00 00 00 00 00 00 00 00     ....~...........
    5554:	00 00 00 00 00 00 1c 1c 0c 18 00 00 00 00 00 00     ................
    5564:	00 00 00 7e 00 00 00 00 00 00 00 00 00 00 00 00     ...~............
    5574:	00 00 00 00 00 00 1c 1c 00 00 00 00 00 00 00 06     ................
    5584:	06 0c 0c 18 18 30 30 60 60 00 00 00 00 00 00 1e     .....00``.......
    5594:	33 37 37 33 3b 3b 33 1e 00 00 00 00 00 00 00 0c     3773;;3.........
    55a4:	1c 7c 0c 0c 0c 0c 0c 0c 00 00 00 00 00 00 00 3c     .|.............<
    55b4:	66 66 06 0c 18 30 60 7e 00 00 00 00 00 00 00 3c     ff...0`~.......<
    55c4:	66 66 06 1c 06 66 66 3c 00 00 00 00 00 00 00 30     ff...ff<.......0
    55d4:	30 36 36 36 66 7f 06 06 00 00 00 00 00 00 00 7e     0666f..........~
    55e4:	60 60 60 7c 06 06 0c 78 00 00 00 00 00 00 00 1c     ```|...x........
    55f4:	18 30 7c 66 66 66 66 3c 00 00 00 00 00 00 00 7e     .0|ffff<.......~
    5604:	06 0c 0c 18 18 30 30 30 00 00 00 00 00 00 00 3c     .....000.......<
    5614:	66 66 76 3c 6e 66 66 3c 00 00 00 00 00 00 00 3c     ffv<nff<.......<
    5624:	66 66 66 66 3e 0c 18 38 00 00 00 00 00 00 00 00     ffff>..8........
    5634:	00 1c 1c 00 00 00 1c 1c 00 00 00 00 00 00 00 00     ................
    5644:	00 1c 1c 00 00 00 1c 1c 0c 18 00 00 00 00 00 06     ................
    5654:	0c 18 30 60 30 18 0c 06 00 00 00 00 00 00 00 00     ..0`0...........
    5664:	00 00 7e 00 7e 00 00 00 00 00 00 00 00 00 00 60     ..~.~..........`
    5674:	30 18 0c 06 0c 18 30 60 00 00 00 00 00 00 00 3c     0.....0`.......<
    5684:	66 66 0c 18 18 00 18 18 00 00 00 00 00 00 00 7e     ff.............~
    5694:	c3 c3 cf db db cf c0 7f 00 00 00 00 00 00 00 18     ................
    56a4:	3c 66 66 66 7e 66 66 66 00 00 00 00 00 00 00 7c     <fff~fff.......|
    56b4:	66 66 66 7c 66 66 66 7c 00 00 00 00 00 00 00 3c     fff|fff|.......<
    56c4:	66 66 60 60 60 66 66 3c 00 00 00 00 00 00 00 78     ff```ff<.......x
    56d4:	6c 66 66 66 66 66 6c 78 00 00 00 00 00 00 00 7e     lffffflx.......~
    56e4:	60 60 60 7c 60 60 60 7e 00 00 00 00 00 00 00 7e     ```|```~.......~
    56f4:	60 60 60 7c 60 60 60 60 00 00 00 00 00 00 00 3c     ```|````.......<
    5704:	66 66 60 60 6e 66 66 3e 00 00 00 00 00 00 00 66     ff``nff>.......f
    5714:	66 66 66 7e 66 66 66 66 00 00 00 00 00 00 00 3c     fff~ffff.......<
    5724:	18 18 18 18 18 18 18 3c 00 00 00 00 00 00 1e 0c     .......<........
    5734:	0c 0c 0c 0c cc cc cc 78 00 00 00 00 00 00 00 66     .......x.......f
    5744:	66 6c 6c 78 6c 6c 66 66 00 00 00 00 00 00 00 60     fllxllff.......`
    5754:	60 60 60 60 60 60 60 7e 00 00 00 00 00 00 00 63     ```````~.......c
    5764:	63 77 6b 6b 6b 63 63 63 00 00 00 00 00 00 00 63     cwkkkccc.......c
    5774:	63 73 7b 6f 67 63 63 63 00 00 00 00 00 00 00 3c     cs{ogccc.......<
    5784:	66 66 66 66 66 66 66 3c 00 00 00 00 00 00 00 7c     fffffff<.......|
    5794:	66 66 66 7c 60 60 60 60 00 00 00 00 00 00 00 3c     fff|````.......<
    57a4:	66 66 66 66 66 66 66 3c 0c 06 00 00 00 00 00 7c     fffffff<.......|
    57b4:	66 66 66 7c 6c 66 66 66 00 00 00 00 00 00 00 3c     fff|lfff.......<
    57c4:	66 60 30 18 0c 06 66 3c 00 00 00 00 00 00 00 7e     f`0...f<.......~
    57d4:	18 18 18 18 18 18 18 18 00 00 00 00 00 00 00 66     ...............f
    57e4:	66 66 66 66 66 66 66 3c 00 00 00 00 00 00 00 66     fffffff<.......f
    57f4:	66 66 66 66 66 66 3c 18 00 00 00 00 00 00 00 63     ffffff<........c
    5804:	63 63 6b 6b 6b 36 36 36 00 00 00 00 00 00 00 66     cckkk666.......f
    5814:	66 34 18 18 2c 66 66 66 00 00 00 00 00 00 00 66     f4..,fff.......f
    5824:	66 66 66 3c 18 18 18 18 00 00 00 00 00 00 00 7e     fff<...........~
    5834:	06 06 0c 18 30 60 60 7e 00 00 00 00 00 00 00 3c     ....0``~.......<
    5844:	30 30 30 30 30 30 30 30 30 30 3c 00 00 00 00 60     0000000000<....`
    5854:	60 30 30 18 18 0c 0c 06 06 00 00 00 00 00 00 3c     `00............<
    5864:	0c 0c 0c 0c 0c 0c 0c 0c 0c 0c 3c 00 00 18 3c 66     ..........<...<f
	...
    588c:	00 00 ff 00 00 38 18 0c 00 00 00 00 00 00 00 00     .....8..........
	...
    58a4:	00 3c 06 06 3e 66 66 3e 00 00 00 00 00 00 00 60     .<..>ff>.......`
    58b4:	60 7c 66 66 66 66 66 7c 00 00 00 00 00 00 00 00     `|fffff|........
    58c4:	00 3c 66 60 60 60 66 3c 00 00 00 00 00 00 00 06     .<f```f<........
    58d4:	06 3e 66 66 66 66 66 3e 00 00 00 00 00 00 00 00     .>fffff>........
    58e4:	00 3c 66 66 7e 60 60 3c 00 00 00 00 00 00 00 1e     .<ff~``<........
    58f4:	30 30 30 7e 30 30 30 30 00 00 00 00 00 00 00 00     000~0000........
    5904:	00 3e 66 66 66 66 66 3e 06 06 7c 00 00 00 00 60     .>fffff>..|....`
    5914:	60 7c 66 66 66 66 66 66 00 00 00 00 00 00 18 18     `|ffffff........
    5924:	00 78 18 18 18 18 18 7e 00 00 00 00 00 00 0c 0c     .x.....~........
    5934:	00 3c 0c 0c 0c 0c 0c 0c 0c 0c 78 00 00 00 00 60     .<........x....`
    5944:	60 66 66 6c 78 6c 66 66 00 00 00 00 00 00 00 78     `fflxlff.......x
    5954:	18 18 18 18 18 18 18 7e 00 00 00 00 00 00 00 00     .......~........
    5964:	00 7e 6b 6b 6b 6b 6b 63 00 00 00 00 00 00 00 00     .~kkkkkc........
    5974:	00 7c 66 66 66 66 66 66 00 00 00 00 00 00 00 00     .|ffffff........
    5984:	00 3c 66 66 66 66 66 3c 00 00 00 00 00 00 00 00     .<fffff<........
    5994:	00 7c 66 66 66 66 66 7c 60 60 60 00 00 00 00 00     .|fffff|```.....
    59a4:	00 3e 66 66 66 66 66 3e 06 06 06 00 00 00 00 00     .>fffff>........
    59b4:	00 66 6e 70 60 60 60 60 00 00 00 00 00 00 00 00     .fnp````........
    59c4:	00 3e 60 60 3c 06 06 7c 00 00 00 00 00 00 00 30     .>``<..|.......0
    59d4:	30 7e 30 30 30 30 30 1e 00 00 00 00 00 00 00 00     0~00000.........
    59e4:	00 66 66 66 66 66 66 3e 00 00 00 00 00 00 00 00     .ffffff>........
    59f4:	00 66 66 66 66 66 3c 18 00 00 00 00 00 00 00 00     .fffff<.........
    5a04:	00 63 6b 6b 6b 6b 36 36 00 00 00 00 00 00 00 00     .ckkkk66........
    5a14:	00 66 66 3c 18 3c 66 66 00 00 00 00 00 00 00 00     .ff<.<ff........
    5a24:	00 66 66 66 66 66 66 3c 0c 18 f0 00 00 00 00 00     .ffffff<........
    5a34:	00 7e 06 0c 18 30 60 7e 00 00 00 00 00 00 00 0c     .~...0`~........
    5a44:	18 18 18 30 60 30 18 18 18 0c 00 00 00 00 00 18     ...0`0..........
    5a54:	18 18 18 18 18 18 18 18 18 18 18 00 00 00 00 30     ...............0
    5a64:	18 18 18 0c 06 0c 18 18 18 30 00 00 00 00 00 71     .........0.....q
    5a74:	db 8e 00 00 00 00 00 00 00 00 00 00                 ............

00005a80 <__init>:
    5a80:	11 24       	eor	r1, r1
    5a82:	1f be       	out	0x3f, r1	; 63
    5a84:	cf e5       	ldi	r28, 0x5F	; 95
    5a86:	d8 e0       	ldi	r29, 0x08	; 8
    5a88:	de bf       	out	0x3e, r29	; 62
    5a8a:	cd bf       	out	0x3d, r28	; 61

00005a8c <__do_copy_data>:
    5a8c:	10 e0       	ldi	r17, 0x00	; 0
    5a8e:	a0 e6       	ldi	r26, 0x60	; 96
    5a90:	b0 e0       	ldi	r27, 0x00	; 0
    5a92:	ea e6       	ldi	r30, 0x6A	; 106
    5a94:	f6 e6       	ldi	r31, 0x66	; 102
    5a96:	02 c0       	rjmp	.+4      	; 0x5a9c <.do_copy_data_start>

00005a98 <.do_copy_data_loop>:
    5a98:	05 90       	lpm	r0, Z+
    5a9a:	0d 92       	st	X+, r0

00005a9c <.do_copy_data_start>:
    5a9c:	a2 3c       	cpi	r26, 0xC2	; 194
    5a9e:	b1 07       	cpc	r27, r17
    5aa0:	d9 f7       	brne	.-10     	; 0x5a98 <.do_copy_data_loop>

00005aa2 <__do_clear_bss>:
    5aa2:	10 e0       	ldi	r17, 0x00	; 0
    5aa4:	a2 ec       	ldi	r26, 0xC2	; 194
    5aa6:	b0 e0       	ldi	r27, 0x00	; 0
    5aa8:	01 c0       	rjmp	.+2      	; 0x5aac <.do_clear_bss_start>

00005aaa <.do_clear_bss_loop>:
    5aaa:	1d 92       	st	X+, r1

00005aac <.do_clear_bss_start>:
    5aac:	a3 3c       	cpi	r26, 0xC3	; 195
    5aae:	b1 07       	cpc	r27, r17
    5ab0:	e1 f7       	brne	.-8      	; 0x5aaa <.do_clear_bss_loop>
    5ab2:	0c 94 e4 32 	jmp	0x65c8 <main>

00005ab6 <__bad_interrupt>:
    5ab6:	0c 94 00 00 	jmp	0x0 <__vectors>

00005aba <InitSCCB>:
-----------------------------------------------
*/
void InitSCCB(void)
{
	SCCB_DDR|=(1<<SCCB_SIO_C)|(1<<SCCB_SIO_D);
    5aba:	8a b3       	in	r24, 0x1a	; 26
    5abc:	80 63       	ori	r24, 0x30	; 48
    5abe:	8a bb       	out	0x1a, r24	; 26
	SCCB_PORT|=(1<<SCCB_SIO_C)|(1<<SCCB_SIO_D);
    5ac0:	8b b3       	in	r24, 0x1b	; 27
    5ac2:	80 63       	ori	r24, 0x30	; 48
    5ac4:	8b bb       	out	0x1b, r24	; 27
    5ac6:	08 95       	ret

00005ac8 <startSCCB>:
}
/*
-----------------------------------------------
   : start,SCCB
   : 
 : 
-----------------------------------------------
*/
void startSCCB(void)
{
	SIO_D_SET;     //
    5ac8:	dd 9a       	sbi	0x1b, 5	; 27
    delay_us(100);
    5aca:	84 e6       	ldi	r24, 0x64	; 100
    5acc:	90 e0       	ldi	r25, 0x00	; 0
    5ace:	0e 94 9d 2e 	call	0x5d3a <delay_us>

    SIO_C_SET;	   //
    5ad2:	dc 9a       	sbi	0x1b, 4	; 27
    delay_us(100);
    5ad4:	84 e6       	ldi	r24, 0x64	; 100
    5ad6:	90 e0       	ldi	r25, 0x00	; 0
    5ad8:	0e 94 9d 2e 	call	0x5d3a <delay_us>
 
    SIO_D_CLR;
    5adc:	dd 98       	cbi	0x1b, 5	; 27
    delay_us(100);
    5ade:	84 e6       	ldi	r24, 0x64	; 100
    5ae0:	90 e0       	ldi	r25, 0x00	; 0
    5ae2:	0e 94 9d 2e 	call	0x5d3a <delay_us>

    SIO_C_CLR;	 //
    5ae6:	dc 98       	cbi	0x1b, 4	; 27
    delay_us(100);
    5ae8:	84 e6       	ldi	r24, 0x64	; 100
    5aea:	90 e0       	ldi	r25, 0x00	; 0
    5aec:	0e 94 9d 2e 	call	0x5d3a <delay_us>
    5af0:	08 95       	ret

00005af2 <stopSCCB>:


}
/*
-----------------------------------------------
   : stop,SCCB
   : 
 : 
-----------------------------------------------
*/
void stopSCCB(void)
{
	SIO_D_CLR;
    5af2:	dd 98       	cbi	0x1b, 5	; 27
    delay_us(100);
    5af4:	84 e6       	ldi	r24, 0x64	; 100
    5af6:	90 e0       	ldi	r25, 0x00	; 0
    5af8:	0e 94 9d 2e 	call	0x5d3a <delay_us>
 
    SIO_C_SET;
    5afc:	dc 9a       	sbi	0x1b, 4	; 27
    delay_us(100);
    5afe:	84 e6       	ldi	r24, 0x64	; 100
    5b00:	90 e0       	ldi	r25, 0x00	; 0
    5b02:	0e 94 9d 2e 	call	0x5d3a <delay_us>
  

    SIO_D_SET;
    5b06:	dd 9a       	sbi	0x1b, 5	; 27
    delay_us(100);
    5b08:	84 e6       	ldi	r24, 0x64	; 100
    5b0a:	90 e0       	ldi	r25, 0x00	; 0
    5b0c:	0e 94 9d 2e 	call	0x5d3a <delay_us>
    5b10:	08 95       	ret

00005b12 <noAck>:
 //   SCCB_DDR&= ~(SCCB_SIO_D);

}

/*
-----------------------------------------------
   : noAck,
   : 
 : 
-----------------------------------------------
*/
void noAck(void)
{
	
	SIO_D_SET;
    5b12:	dd 9a       	sbi	0x1b, 5	; 27
	delay_us(100);
    5b14:	84 e6       	ldi	r24, 0x64	; 100
    5b16:	90 e0       	ldi	r25, 0x00	; 0
    5b18:	0e 94 9d 2e 	call	0x5d3a <delay_us>
	
	SIO_C_SET;
    5b1c:	dc 9a       	sbi	0x1b, 4	; 27
	delay_us(100);
    5b1e:	84 e6       	ldi	r24, 0x64	; 100
    5b20:	90 e0       	ldi	r25, 0x00	; 0
    5b22:	0e 94 9d 2e 	call	0x5d3a <delay_us>
	
	SIO_C_CLR;
    5b26:	dc 98       	cbi	0x1b, 4	; 27
	delay_us(100);
    5b28:	84 e6       	ldi	r24, 0x64	; 100
    5b2a:	90 e0       	ldi	r25, 0x00	; 0
    5b2c:	0e 94 9d 2e 	call	0x5d3a <delay_us>
	
	SIO_D_CLR;
    5b30:	dd 98       	cbi	0x1b, 5	; 27
	delay_us(100);
    5b32:	84 e6       	ldi	r24, 0x64	; 100
    5b34:	90 e0       	ldi	r25, 0x00	; 0
    5b36:	0e 94 9d 2e 	call	0x5d3a <delay_us>
    5b3a:	08 95       	ret

00005b3c <SCCBwriteByte>:

}

/*
-----------------------------------------------
   : SCCB
   : 
 : 10
-----------------------------------------------
*/
uchar SCCBwriteByte(uchar m_data)
{
    5b3c:	0f 93       	push	r16
    5b3e:	1f 93       	push	r17
    5b40:	cf 93       	push	r28
    5b42:	df 93       	push	r29
    5b44:	08 2f       	mov	r16, r24
    5b46:	c0 e0       	ldi	r28, 0x00	; 0
    5b48:	d0 e0       	ldi	r29, 0x00	; 0
    5b4a:	17 e0       	ldi	r17, 0x07	; 7
	unsigned char j,tem;

	for(j=0;j<8;j++) //8
	{
		if((m_data<<j)&0x80)
    5b4c:	80 2f       	mov	r24, r16
    5b4e:	99 27       	eor	r25, r25
    5b50:	0c 2e       	mov	r0, r28
    5b52:	02 c0       	rjmp	.+4      	; 0x5b58 <SCCBwriteByte+0x1c>
    5b54:	88 0f       	add	r24, r24
    5b56:	99 1f       	adc	r25, r25
    5b58:	0a 94       	dec	r0
    5b5a:	e2 f7       	brpl	.-8      	; 0x5b54 <SCCBwriteByte+0x18>
    5b5c:	87 ff       	sbrs	r24, 7
    5b5e:	02 c0       	rjmp	.+4      	; 0x5b64 <SCCBwriteByte+0x28>
		{
			SIO_D_SET;
    5b60:	dd 9a       	sbi	0x1b, 5	; 27
    5b62:	01 c0       	rjmp	.+2      	; 0x5b66 <SCCBwriteByte+0x2a>
		}
		else
		{
			SIO_D_CLR;
    5b64:	dd 98       	cbi	0x1b, 5	; 27
		}
		delay_us(100);
    5b66:	84 e6       	ldi	r24, 0x64	; 100
    5b68:	90 e0       	ldi	r25, 0x00	; 0
    5b6a:	0e 94 9d 2e 	call	0x5d3a <delay_us>
		SIO_C_SET;
    5b6e:	dc 9a       	sbi	0x1b, 4	; 27
		delay_us(100);
    5b70:	84 e6       	ldi	r24, 0x64	; 100
    5b72:	90 e0       	ldi	r25, 0x00	; 0
    5b74:	0e 94 9d 2e 	call	0x5d3a <delay_us>
		SIO_C_CLR;
    5b78:	dc 98       	cbi	0x1b, 4	; 27
		delay_us(100);
    5b7a:	84 e6       	ldi	r24, 0x64	; 100
    5b7c:	90 e0       	ldi	r25, 0x00	; 0
    5b7e:	0e 94 9d 2e 	call	0x5d3a <delay_us>
    5b82:	11 50       	subi	r17, 0x01	; 1
    5b84:	21 96       	adiw	r28, 0x01	; 1
    5b86:	17 ff       	sbrs	r17, 7
    5b88:	e1 cf       	rjmp	.-62     	; 0x5b4c <SCCBwriteByte+0x10>

	}
	delay_us(100);
    5b8a:	84 e6       	ldi	r24, 0x64	; 100
    5b8c:	90 e0       	ldi	r25, 0x00	; 0
    5b8e:	0e 94 9d 2e 	call	0x5d3a <delay_us>
	
	SIO_D_IN;/*SDA*/
    5b92:	d5 98       	cbi	0x1a, 5	; 26
	delay_us(100);
    5b94:	84 e6       	ldi	r24, 0x64	; 100
    5b96:	90 e0       	ldi	r25, 0x00	; 0
    5b98:	0e 94 9d 2e 	call	0x5d3a <delay_us>
	SIO_C_SET;
    5b9c:	dc 9a       	sbi	0x1b, 4	; 27
	delay_us(1000);
    5b9e:	88 ee       	ldi	r24, 0xE8	; 232
    5ba0:	93 e0       	ldi	r25, 0x03	; 3
    5ba2:	0e 94 9d 2e 	call	0x5d3a <delay_us>
	if(SIO_D_STATE)
    5ba6:	cd 9b       	sbis	0x19, 5	; 25
    5ba8:	02 c0       	rjmp	.+4      	; 0x5bae <SCCBwriteByte+0x72>
	{
		tem=0;   //SDA=10
    5baa:	c0 e0       	ldi	r28, 0x00	; 0
    5bac:	01 c0       	rjmp	.+2      	; 0x5bb0 <SCCBwriteByte+0x74>
	}
	else
	{
		tem=1;   //SDA=01
    5bae:	c1 e0       	ldi	r28, 0x01	; 1
	}
	SIO_C_CLR;
    5bb0:	dc 98       	cbi	0x1b, 4	; 27
	delay_us(100);	
    5bb2:	84 e6       	ldi	r24, 0x64	; 100
    5bb4:	90 e0       	ldi	r25, 0x00	; 0
    5bb6:	0e 94 9d 2e 	call	0x5d3a <delay_us>
    SIO_D_OUT;/*SDA*/
    5bba:	d5 9a       	sbi	0x1a, 5	; 26

	return(tem);  
}
    5bbc:	8c 2f       	mov	r24, r28
    5bbe:	99 27       	eor	r25, r25
    5bc0:	df 91       	pop	r29
    5bc2:	cf 91       	pop	r28
    5bc4:	1f 91       	pop	r17
    5bc6:	0f 91       	pop	r16
    5bc8:	08 95       	ret

00005bca <SCCBreadByte>:

/*
-----------------------------------------------
   : 
   : 
 : 
-----------------------------------------------
*/
uchar SCCBreadByte(void)
{
    5bca:	1f 93       	push	r17
    5bcc:	cf 93       	push	r28
	unsigned char read,j;
	read=0x00;
    5bce:	c0 e0       	ldi	r28, 0x00	; 0
	
	SIO_D_IN;/*SDA*/
    5bd0:	d5 98       	cbi	0x1a, 5	; 26
	delay_us(100);
    5bd2:	84 e6       	ldi	r24, 0x64	; 100
    5bd4:	90 e0       	ldi	r25, 0x00	; 0
    5bd6:	0e 94 9d 2e 	call	0x5d3a <delay_us>
	for(j=8;j>0;j--) //8
    5bda:	18 e0       	ldi	r17, 0x08	; 8
	{		     
		delay_us(100);
    5bdc:	84 e6       	ldi	r24, 0x64	; 100
    5bde:	90 e0       	ldi	r25, 0x00	; 0
    5be0:	0e 94 9d 2e 	call	0x5d3a <delay_us>
		SIO_C_SET;
    5be4:	dc 9a       	sbi	0x1b, 4	; 27
		delay_us(100);
    5be6:	84 e6       	ldi	r24, 0x64	; 100
    5be8:	90 e0       	ldi	r25, 0x00	; 0
    5bea:	0e 94 9d 2e 	call	0x5d3a <delay_us>
		read=read<<1;
    5bee:	cc 0f       	add	r28, r28
		if(SIO_D_STATE) 
    5bf0:	cd 99       	sbic	0x19, 5	; 25
		{
			read=read+1;
    5bf2:	cf 5f       	subi	r28, 0xFF	; 255
		}
		SIO_C_CLR;
    5bf4:	dc 98       	cbi	0x1b, 4	; 27
		delay_us(100);
    5bf6:	84 e6       	ldi	r24, 0x64	; 100
    5bf8:	90 e0       	ldi	r25, 0x00	; 0
    5bfa:	0e 94 9d 2e 	call	0x5d3a <delay_us>
    5bfe:	11 50       	subi	r17, 0x01	; 1
    5c00:	69 f7       	brne	.-38     	; 0x5bdc <SCCBreadByte+0x12>
	}	
	return(read);
}
    5c02:	8c 2f       	mov	r24, r28
    5c04:	99 27       	eor	r25, r25
    5c06:	cf 91       	pop	r28
    5c08:	1f 91       	pop	r17
    5c0a:	08 95       	ret

00005c0c <wrOV7670Reg>:
////////////////////////////
//OV7660
//1-	0-
uchar wrOV7670Reg(uchar regID, uchar regDat)
{
    5c0c:	1f 93       	push	r17
    5c0e:	cf 93       	push	r28
    5c10:	c8 2f       	mov	r28, r24
    5c12:	16 2f       	mov	r17, r22
	startSCCB();
    5c14:	0e 94 64 2d 	call	0x5ac8 <startSCCB>
	if(0==SCCBwriteByte(0x42))
    5c18:	82 e4       	ldi	r24, 0x42	; 66
    5c1a:	0e 94 9e 2d 	call	0x5b3c <SCCBwriteByte>
    5c1e:	88 23       	and	r24, r24
    5c20:	91 f0       	breq	.+36     	; 0x5c46 <wrOV7670Reg+0x3a>
	{
		stopSCCB();
		return(0);
	}
	delay_us(100);
    5c22:	84 e6       	ldi	r24, 0x64	; 100
    5c24:	90 e0       	ldi	r25, 0x00	; 0
    5c26:	0e 94 9d 2e 	call	0x5d3a <delay_us>
  	if(0==SCCBwriteByte(regID))
    5c2a:	8c 2f       	mov	r24, r28
    5c2c:	0e 94 9e 2d 	call	0x5b3c <SCCBwriteByte>
    5c30:	88 23       	and	r24, r24
    5c32:	49 f0       	breq	.+18     	; 0x5c46 <wrOV7670Reg+0x3a>
	{
		stopSCCB();
		return(0);
	}
	delay_us(100);
    5c34:	84 e6       	ldi	r24, 0x64	; 100
    5c36:	90 e0       	ldi	r25, 0x00	; 0
    5c38:	0e 94 9d 2e 	call	0x5d3a <delay_us>
  	if(0==SCCBwriteByte(regDat))
    5c3c:	81 2f       	mov	r24, r17
    5c3e:	0e 94 9e 2d 	call	0x5b3c <SCCBwriteByte>
    5c42:	88 23       	and	r24, r24
    5c44:	29 f4       	brne	.+10     	; 0x5c50 <wrOV7670Reg+0x44>
	{
		stopSCCB();
    5c46:	0e 94 79 2d 	call	0x5af2 <stopSCCB>
		return(0);
    5c4a:	80 e0       	ldi	r24, 0x00	; 0
    5c4c:	90 e0       	ldi	r25, 0x00	; 0
    5c4e:	04 c0       	rjmp	.+8      	; 0x5c58 <wrOV7670Reg+0x4c>
	}
  	stopSCCB();
    5c50:	0e 94 79 2d 	call	0x5af2 <stopSCCB>
	
  	return(1);
    5c54:	81 e0       	ldi	r24, 0x01	; 1
    5c56:	90 e0       	ldi	r25, 0x00	; 0
    5c58:	cf 91       	pop	r28
    5c5a:	1f 91       	pop	r17
    5c5c:	08 95       	ret

00005c5e <rdOV7670Reg>:
}
////////////////////////////
//OV7660
//1-	0-
uchar rdOV7670Reg(uchar regID, uchar *regDat)
{
    5c5e:	0f 93       	push	r16
    5c60:	1f 93       	push	r17
    5c62:	cf 93       	push	r28
    5c64:	c8 2f       	mov	r28, r24
    5c66:	8b 01       	movw	r16, r22
	//
	startSCCB();
    5c68:	0e 94 64 2d 	call	0x5ac8 <startSCCB>
	if(0==SCCBwriteByte(0x42))
    5c6c:	82 e4       	ldi	r24, 0x42	; 66
    5c6e:	0e 94 9e 2d 	call	0x5b3c <SCCBwriteByte>
    5c72:	88 23       	and	r24, r24
    5c74:	b1 f0       	breq	.+44     	; 0x5ca2 <rdOV7670Reg+0x44>
	{
		stopSCCB();
		return(0);
	}
	delay_us(100);
    5c76:	84 e6       	ldi	r24, 0x64	; 100
    5c78:	90 e0       	ldi	r25, 0x00	; 0
    5c7a:	0e 94 9d 2e 	call	0x5d3a <delay_us>
  	if(0==SCCBwriteByte(regID))
    5c7e:	8c 2f       	mov	r24, r28
    5c80:	0e 94 9e 2d 	call	0x5b3c <SCCBwriteByte>
    5c84:	88 23       	and	r24, r24
    5c86:	69 f0       	breq	.+26     	; 0x5ca2 <rdOV7670Reg+0x44>
	{
		stopSCCB();
		return(0);
	}
	stopSCCB();
    5c88:	0e 94 79 2d 	call	0x5af2 <stopSCCB>
	
	delay_us(100);
    5c8c:	84 e6       	ldi	r24, 0x64	; 100
    5c8e:	90 e0       	ldi	r25, 0x00	; 0
    5c90:	0e 94 9d 2e 	call	0x5d3a <delay_us>
	
	//
	startSCCB();
    5c94:	0e 94 64 2d 	call	0x5ac8 <startSCCB>
	if(0==SCCBwriteByte(0x43))
    5c98:	83 e4       	ldi	r24, 0x43	; 67
    5c9a:	0e 94 9e 2d 	call	0x5b3c <SCCBwriteByte>
    5c9e:	88 23       	and	r24, r24
    5ca0:	29 f4       	brne	.+10     	; 0x5cac <rdOV7670Reg+0x4e>
	{
		stopSCCB();
    5ca2:	0e 94 79 2d 	call	0x5af2 <stopSCCB>
		return(0);
    5ca6:	80 e0       	ldi	r24, 0x00	; 0
    5ca8:	90 e0       	ldi	r25, 0x00	; 0
    5caa:	0e c0       	rjmp	.+28     	; 0x5cc8 <rdOV7670Reg+0x6a>
	}
	delay_us(100);
    5cac:	84 e6       	ldi	r24, 0x64	; 100
    5cae:	90 e0       	ldi	r25, 0x00	; 0
    5cb0:	0e 94 9d 2e 	call	0x5d3a <delay_us>
  	*regDat=SCCBreadByte();
    5cb4:	0e 94 e5 2d 	call	0x5bca <SCCBreadByte>
    5cb8:	f8 01       	movw	r30, r16
    5cba:	80 83       	st	Z, r24
  	noAck();
    5cbc:	0e 94 89 2d 	call	0x5b12 <noAck>
  	stopSCCB();
    5cc0:	0e 94 79 2d 	call	0x5af2 <stopSCCB>
  	return(1);
    5cc4:	81 e0       	ldi	r24, 0x01	; 1
    5cc6:	90 e0       	ldi	r25, 0x00	; 0
    5cc8:	cf 91       	pop	r28
    5cca:	1f 91       	pop	r17
    5ccc:	0f 91       	pop	r16
    5cce:	08 95       	ret

00005cd0 <OV7670_init>:
}




/* OV7670_init() */
//10
uchar OV7670_init(void)
{
    5cd0:	0f 93       	push	r16
    5cd2:	1f 93       	push	r17
    5cd4:	cf 93       	push	r28
    5cd6:	df 93       	push	r29
	uchar temp;
	
	uint i=0;
    5cd8:	c0 e0       	ldi	r28, 0x00	; 0
    5cda:	d0 e0       	ldi	r29, 0x00	; 0

	
	InitSCCB();//io init..
    5cdc:	0e 94 5d 2d 	call	0x5aba <InitSCCB>

	temp=0x80;
	if(0==wrOV7670Reg(0x12, temp)) //Reset SCCB
    5ce0:	60 e8       	ldi	r22, 0x80	; 128
    5ce2:	82 e1       	ldi	r24, 0x12	; 18
    5ce4:	0e 94 06 2e 	call	0x5c0c <wrOV7670Reg>
    5ce8:	88 23       	and	r24, r24
    5cea:	29 f4       	brne	.+10     	; 0x5cf6 <OV7670_init+0x26>
	{
		return 0 ;
    5cec:	ce 01       	movw	r24, r28
    5cee:	20 c0       	rjmp	.+64     	; 0x5d30 <OV7670_init+0x60>
	}
	delay_ms(10);

	for(i=0;i<CHANGE_REG_NUM;i++)
	{
		if( 0==wrOV7670Reg(pgm_read_byte( &change_reg[i][0]),pgm_read_byte( &change_reg[i][1]) ))
		{
			return 0;
    5cf0:	80 e0       	ldi	r24, 0x00	; 0
    5cf2:	90 e0       	ldi	r25, 0x00	; 0
    5cf4:	1d c0       	rjmp	.+58     	; 0x5d30 <OV7670_init+0x60>
    5cf6:	8a e0       	ldi	r24, 0x0A	; 10
    5cf8:	90 e0       	ldi	r25, 0x00	; 0
    5cfa:	0e 94 a3 2e 	call	0x5d46 <delay_ms>
    5cfe:	cc 5a       	subi	r28, 0xAC	; 172
    5d00:	df 4f       	sbci	r29, 0xFF	; 255
    5d02:	8e 01       	movw	r16, r28
    5d04:	0f 5f       	subi	r16, 0xFF	; 255
    5d06:	1f 4f       	sbci	r17, 0xFF	; 255
    5d08:	f8 01       	movw	r30, r16
    5d0a:	84 91       	lpm	r24, Z
    5d0c:	fe 01       	movw	r30, r28
    5d0e:	94 91       	lpm	r25, Z
    5d10:	68 2f       	mov	r22, r24
    5d12:	89 2f       	mov	r24, r25
    5d14:	0e 94 06 2e 	call	0x5c0c <wrOV7670Reg>
    5d18:	88 23       	and	r24, r24
    5d1a:	51 f3       	breq	.-44     	; 0x5cf0 <OV7670_init+0x20>
    5d1c:	0e 5f       	subi	r16, 0xFE	; 254
    5d1e:	1f 4f       	sbci	r17, 0xFF	; 255
    5d20:	22 96       	adiw	r28, 0x02	; 2
    5d22:	f1 e0       	ldi	r31, 0x01	; 1
    5d24:	cc 3a       	cpi	r28, 0xAC	; 172
    5d26:	df 07       	cpc	r29, r31
    5d28:	79 f3       	breq	.-34     	; 0x5d08 <OV7670_init+0x38>
    5d2a:	70 f3       	brcs	.-36     	; 0x5d08 <OV7670_init+0x38>
		}
	}

	return 0x01; //ok
    5d2c:	81 e0       	ldi	r24, 0x01	; 1
    5d2e:	90 e0       	ldi	r25, 0x00	; 0
    5d30:	df 91       	pop	r29
    5d32:	cf 91       	pop	r28
    5d34:	1f 91       	pop	r17
    5d36:	0f 91       	pop	r16
    5d38:	08 95       	ret

00005d3a <delay_us>:


void delay_us(unsigned int time)
 {     
   while (time--);
    5d3a:	01 97       	sbiw	r24, 0x01	; 1
    5d3c:	2f ef       	ldi	r18, 0xFF	; 255
    5d3e:	8f 3f       	cpi	r24, 0xFF	; 255
    5d40:	92 07       	cpc	r25, r18
    5d42:	d9 f7       	brne	.-10     	; 0x5d3a <delay_us>
    5d44:	08 95       	ret

00005d46 <delay_ms>:
 }		  

/*	    	*/	 
void delay_ms(unsigned int time)
	 {
    5d46:	cf 93       	push	r28
    5d48:	df 93       	push	r29
	  while(time--) delay_us(100);  		 
    5d4a:	ec 01       	movw	r28, r24
    5d4c:	21 97       	sbiw	r28, 0x01	; 1
    5d4e:	8f ef       	ldi	r24, 0xFF	; 255
    5d50:	cf 3f       	cpi	r28, 0xFF	; 255
    5d52:	d8 07       	cpc	r29, r24
    5d54:	49 f0       	breq	.+18     	; 0x5d68 <delay_ms+0x22>
    5d56:	84 e6       	ldi	r24, 0x64	; 100
    5d58:	90 e0       	ldi	r25, 0x00	; 0
    5d5a:	0e 94 9d 2e 	call	0x5d3a <delay_us>
    5d5e:	21 97       	sbiw	r28, 0x01	; 1
    5d60:	8f ef       	ldi	r24, 0xFF	; 255
    5d62:	cf 3f       	cpi	r28, 0xFF	; 255
    5d64:	d8 07       	cpc	r29, r24
    5d66:	b9 f7       	brne	.-18     	; 0x5d56 <delay_ms+0x10>
    5d68:	df 91       	pop	r29
    5d6a:	cf 91       	pop	r28
    5d6c:	08 95       	ret

00005d6e <LCD_WR_DATA16>:
#include<ILI9331.h>
#include<delay.C>

void LCD_WR_DATA16(unsigned int data)//
{
    5d6e:	0f 93       	push	r16
    5d70:	1f 93       	push	r17
    5d72:	8c 01       	movw	r16, r24
     LCD_RD_H();
    5d74:	c2 9a       	sbi	0x18, 2	; 24
	 LCD_RS_H();
    5d76:	df 9a       	sbi	0x1b, 7	; 27
     LCD_CS_L();  
    5d78:	de 98       	cbi	0x1b, 6	; 27
     LCD_WR_L();
    5d7a:	c3 9a       	sbi	0x18, 3	; 24
	 
     DATA_LCD_PORT=data>>8;
    5d7c:	81 2f       	mov	r24, r17
    5d7e:	99 27       	eor	r25, r25
    5d80:	85 bb       	out	0x15, r24	; 21
     delay_us(1);
    5d82:	81 e0       	ldi	r24, 0x01	; 1
    5d84:	90 e0       	ldi	r25, 0x00	; 0
    5d86:	0e 94 9d 2e 	call	0x5d3a <delay_us>
     LCD_WR_H();
    5d8a:	c3 98       	cbi	0x18, 3	; 24
     LCD_WR_L();
    5d8c:	c3 9a       	sbi	0x18, 3	; 24
	 delay_us(1);
    5d8e:	81 e0       	ldi	r24, 0x01	; 1
    5d90:	90 e0       	ldi	r25, 0x00	; 0
    5d92:	0e 94 9d 2e 	call	0x5d3a <delay_us>
     DATA_LCD_PORT=data&0XFF; 
    5d96:	05 bb       	out	0x15, r16	; 21
	 delay_us(1);
    5d98:	81 e0       	ldi	r24, 0x01	; 1
    5d9a:	90 e0       	ldi	r25, 0x00	; 0
    5d9c:	0e 94 9d 2e 	call	0x5d3a <delay_us>
     LCD_WR_H();
    5da0:	c3 98       	cbi	0x18, 3	; 24
     LCD_CS_H();
    5da2:	de 9a       	sbi	0x1b, 6	; 27
    5da4:	1f 91       	pop	r17
    5da6:	0f 91       	pop	r16
    5da8:	08 95       	ret

00005daa <LCD_WR_REG16>:
  
}
void LCD_WR_REG16(unsigned int index)//
{
    5daa:	0f 93       	push	r16
    5dac:	1f 93       	push	r17
    5dae:	8c 01       	movw	r16, r24
     LCD_RD_H();
    5db0:	c2 9a       	sbi	0x18, 2	; 24
	 LCD_RS_L();
    5db2:	df 98       	cbi	0x1b, 7	; 27
     LCD_CS_L();  
    5db4:	de 98       	cbi	0x1b, 6	; 27
     LCD_WR_L();
    5db6:	c3 9a       	sbi	0x18, 3	; 24
	 delay_us(1);
    5db8:	81 e0       	ldi	r24, 0x01	; 1
    5dba:	90 e0       	ldi	r25, 0x00	; 0
    5dbc:	0e 94 9d 2e 	call	0x5d3a <delay_us>
     DATA_LCD_PORT=index>>8; 
    5dc0:	81 2f       	mov	r24, r17
    5dc2:	99 27       	eor	r25, r25
    5dc4:	85 bb       	out	0x15, r24	; 21
	 delay_us(1);
    5dc6:	81 e0       	ldi	r24, 0x01	; 1
    5dc8:	90 e0       	ldi	r25, 0x00	; 0
    5dca:	0e 94 9d 2e 	call	0x5d3a <delay_us>
     LCD_WR_H();
    5dce:	c3 98       	cbi	0x18, 3	; 24
     LCD_WR_L();
    5dd0:	c3 9a       	sbi	0x18, 3	; 24
	 delay_us(1);
    5dd2:	81 e0       	ldi	r24, 0x01	; 1
    5dd4:	90 e0       	ldi	r25, 0x00	; 0
    5dd6:	0e 94 9d 2e 	call	0x5d3a <delay_us>
     DATA_LCD_PORT=index&0XFF; 
    5dda:	05 bb       	out	0x15, r16	; 21
	 delay_us(1);
    5ddc:	81 e0       	ldi	r24, 0x01	; 1
    5dde:	90 e0       	ldi	r25, 0x00	; 0
    5de0:	0e 94 9d 2e 	call	0x5d3a <delay_us>
     LCD_WR_H();
    5de4:	c3 98       	cbi	0x18, 3	; 24
     LCD_CS_H();
    5de6:	de 9a       	sbi	0x1b, 6	; 27
    5de8:	1f 91       	pop	r17
    5dea:	0f 91       	pop	r16
    5dec:	08 95       	ret

00005dee <LCD_WR_REG>:
}

void LCD_WR_REG(unsigned int index,unsigned int data)
{
    5dee:	0f 93       	push	r16
    5df0:	1f 93       	push	r17
    5df2:	8b 01       	movw	r16, r22
     LCD_WR_REG16(index);
    5df4:	0e 94 d5 2e 	call	0x5daa <LCD_WR_REG16>
     LCD_WR_DATA16(data);
    5df8:	c8 01       	movw	r24, r16
    5dfa:	0e 94 b7 2e 	call	0x5d6e <LCD_WR_DATA16>
    5dfe:	1f 91       	pop	r17
    5e00:	0f 91       	pop	r16
    5e02:	08 95       	ret

00005e04 <LCD_Clear>:
}


void LCD_Init(void)
{
	     LCD_PORT_INI();
	     LCD_RST_L();//
	     delay_ms(1000);
	     LCD_RST_H();
	     delay_ms(1000); 
	//initializing funciton 1 
         LCD_WR_REG(0x01, 0x0000); // set SS and SM bit
         LCD_WR_REG(0x02, 0x0700); // set 1 line inversion
        // LCD_WR_REG(0x03, 0x10B0); // set GRAM write direction and BGR=1.
#if   ID_AM==000       
	     LCD_WR_REG(0x0003,0x1000);// TFM=0,TRI=0,SWAP=1,16 bits system interface  swap RGB to BRGORGHWM 0
#elif ID_AM==001        
	     LCD_WR_REG(0x0003,0x1008);      
#elif ID_AM==010  
	     LCD_WR_REG(0x0003,0x1010);        
#elif ID_AM==011
	     LCD_WR_REG(0x0003,0x1018);
#elif ID_AM==100  
	     LCD_WR_REG(0x0003,0x1020);      
#elif ID_AM==101  
	     LCD_WR_REG(0x0003,0x1028);      
#elif ID_AM==110  
	     LCD_WR_REG(0x0003,0x1030);      
#elif ID_AM==111  
	     LCD_WR_REG(0x0003,0x1038);
#endif    
         LCD_WR_REG(0x04, 0x0000); // Resize register
         LCD_WR_REG(0x08, 0x0207); // set the back porch and front porch
         LCD_WR_REG(0x09, 0x0000); // set non-display area refresh cycle ISC[3:0]
         LCD_WR_REG(0x0A, 0x0000); // FMARK function
         LCD_WR_REG(0x0C, 0x0000); // RGB interface setting
         LCD_WR_REG(0x0D, 0x0000); // Frame marker Position
         LCD_WR_REG(0x0F, 0x0000); // RGB interface polarity
//Power On sequence //
         LCD_WR_REG(0x10, 0x0080); // SAP, BT[3:0], AP, DSTB, SLP, STB
         LCD_WR_REG(0x11, 0x0007); // DC1[2:0], DC0[2:0], VC[2:0]
         LCD_WR_REG(0x12, 0x0000); // VREG1OUT voltage
         LCD_WR_REG(0x13, 0x0000); // VDV[4:0] for VCOM amplitude
		 LCD_WR_REG(0x07, 0x0001); // 
		 
         delay_ms(2000); // Dis-charge capacitor power voltage
         
         LCD_WR_REG(0x10, 0x1190); // SAP, BT[3:0], AP, DSTB, SLP, STB
         LCD_WR_REG(0x11, 0x0227); // DC1[2:0], DC0[2:0], VC[2:0]
         delay_ms(1000); // Delay 50ms
        
         LCD_WR_REG(0x12, 0x001a); // Internal reference voltage= Vci;
         delay_ms(1000); // Delay 50ms
         LCD_WR_REG(0x13, 0x1100); // Set VDV[4:0] for VCOM amplitude
         LCD_WR_REG(0x29, 0x000e); // Set VCM[5:0] for VCOMH
         LCD_WR_REG(0x2B, 0x000c); // Set Frame Rate
         delay_ms(400); // Delay 50ms
         
#if   ID_AM==000         
	     LCD_WR_REG(0x0020,0x00ef);//GRAM
	     LCD_WR_REG(0x0021,0x013f);      
#elif ID_AM==001
	     LCD_WR_REG(0x0020,0x00ef);
	     LCD_WR_REG(0x0021,0x013f);      
#elif ID_AM==010
	     LCD_WR_REG(0x0020,0x0000);
	     LCD_WR_REG(0x0021,0x013f);      
#elif ID_AM==011
	     LCD_WR_REG(0x0020,0x0000);
	     LCD_WR_REG(0x0021,0x013f);       
#elif ID_AM==100
	     LCD_WR_REG(0x0020,0x00ef);
	     LCD_WR_REG(0x0021,0x0000);      
#elif ID_AM==101  
	     LCD_WR_REG(0x0020,0x00ef);
	     LCD_WR_REG(0x0021,0x0000);      
#elif ID_AM==110
	     LCD_WR_REG(0x0020,0x0000);
	     LCD_WR_REG(0x0021,0x0000);      
#elif ID_AM==111
	     LCD_WR_REG(0x0020,0x0000);
	     LCD_WR_REG(0x0021,0x0000);         
#endif  
// ----------- Adjust the Gamma Curve ----------//
		LCD_WR_REG(0x0030,0x0000);
		LCD_WR_REG(0x0031,0x0606);
		LCD_WR_REG(0x0032,0x0505);
		LCD_WR_REG(0x0035,0x0106);
		LCD_WR_REG(0x0036,0x0202);
		LCD_WR_REG(0x0037,0x0000);
		LCD_WR_REG(0x0038,0x0202);
		LCD_WR_REG(0x0039,0x0505);
		LCD_WR_REG(0x003C,0x0202);
		LCD_WR_REG(0x003D,0x1f01);
//------------------ Set GRAM area ---------------//
         LCD_WR_REG(0x0050, 0x0000); // Horizontal GRAM Start Address
         LCD_WR_REG(0x0051, 0x00EF); // Horizontal GRAM End Address
         LCD_WR_REG(0x0052, 0x0000); // Vertical GRAM Start Address
         LCD_WR_REG(0x0053, 0x013F); // Vertical GRAM Start Address
         LCD_WR_REG(0x0060, 0xa700); // Gate Scan Line
         LCD_WR_REG(0x0061, 0x0001); // NDL,VLE, REV
         LCD_WR_REG(0x006A, 0x0000); // set scrolling line
//-------------- Partial Display Control ---------//
         LCD_WR_REG(0x80, 0x0000);
         LCD_WR_REG(0x81, 0x0000);
         LCD_WR_REG(0x82, 0x0000);
         LCD_WR_REG(0x83, 0x0000);
         LCD_WR_REG(0x84, 0x0000);
         LCD_WR_REG(0x85, 0x0000);
//-------------- Panel Control -------------------//
         LCD_WR_REG(0x90, 0x0010);
         LCD_WR_REG(0x92, 0x0600);
         LCD_WR_REG(0x93, 0x0003);
         LCD_WR_REG(0x95, 0x0110);
         LCD_WR_REG(0x97, 0x0000);
         LCD_WR_REG(0x98, 0x0000);
         LCD_WR_REG(0x07, 0x0173); // 262K color and display ON   0133
		 LCD_Clear(0);
		 delay_ms(200); // Delay 5ms
		 LCD_BL_H();
  
}


/**********************************************
Lcd
Lcd
color Lcd RGB(5-6-5)

***********************************************/
void LCD_Clear(unsigned int Color)
{
    5e04:	cf 93       	push	r28
    5e06:	df 93       	push	r29
    5e08:	ec 01       	movw	r28, r24
  unsigned long index = 0;
  
  LCD_WR_REG(0x0020,0x0000);//GRAM
    5e0a:	60 e0       	ldi	r22, 0x00	; 0
    5e0c:	70 e0       	ldi	r23, 0x00	; 0
    5e0e:	80 e2       	ldi	r24, 0x20	; 32
    5e10:	90 e0       	ldi	r25, 0x00	; 0
    5e12:	0e 94 f7 2e 	call	0x5dee <LCD_WR_REG>
  LCD_WR_REG(0x0021,00000);      
    5e16:	60 e0       	ldi	r22, 0x00	; 0
    5e18:	70 e0       	ldi	r23, 0x00	; 0
    5e1a:	81 e2       	ldi	r24, 0x21	; 33
    5e1c:	90 e0       	ldi	r25, 0x00	; 0
    5e1e:	0e 94 f7 2e 	call	0x5dee <LCD_WR_REG>

  LCD_WR_REG(0x0050,0x00);// GRAM
    5e22:	60 e0       	ldi	r22, 0x00	; 0
    5e24:	70 e0       	ldi	r23, 0x00	; 0
    5e26:	80 e5       	ldi	r24, 0x50	; 80
    5e28:	90 e0       	ldi	r25, 0x00	; 0
    5e2a:	0e 94 f7 2e 	call	0x5dee <LCD_WR_REG>
  LCD_WR_REG(0x0051,239);//GRAM
    5e2e:	6f ee       	ldi	r22, 0xEF	; 239
    5e30:	70 e0       	ldi	r23, 0x00	; 0
    5e32:	81 e5       	ldi	r24, 0x51	; 81
    5e34:	90 e0       	ldi	r25, 0x00	; 0
    5e36:	0e 94 f7 2e 	call	0x5dee <LCD_WR_REG>
  LCD_WR_REG(0x0052,0x00);//GRAM
    5e3a:	60 e0       	ldi	r22, 0x00	; 0
    5e3c:	70 e0       	ldi	r23, 0x00	; 0
    5e3e:	82 e5       	ldi	r24, 0x52	; 82
    5e40:	90 e0       	ldi	r25, 0x00	; 0
    5e42:	0e 94 f7 2e 	call	0x5dee <LCD_WR_REG>
  LCD_WR_REG(0x0053,319);//GRAM 
    5e46:	6f e3       	ldi	r22, 0x3F	; 63
    5e48:	71 e0       	ldi	r23, 0x01	; 1
    5e4a:	83 e5       	ldi	r24, 0x53	; 83
    5e4c:	90 e0       	ldi	r25, 0x00	; 0
    5e4e:	0e 94 f7 2e 	call	0x5dee <LCD_WR_REG>
  LCD_WR_REG16(0x0022);
    5e52:	82 e2       	ldi	r24, 0x22	; 34
    5e54:	90 e0       	ldi	r25, 0x00	; 0
    5e56:	0e 94 d5 2e 	call	0x5daa <LCD_WR_REG16>
  
  LCD_RD_H();
    5e5a:	c2 9a       	sbi	0x18, 2	; 24
  LCD_RS_H();
    5e5c:	df 9a       	sbi	0x1b, 7	; 27
  LCD_CS_L();   
    5e5e:	de 98       	cbi	0x1b, 6	; 27
    5e60:	2d 2f       	mov	r18, r29
    5e62:	33 27       	eor	r19, r19
    5e64:	8f ef       	ldi	r24, 0xFF	; 255
    5e66:	9b e2       	ldi	r25, 0x2B	; 43
    5e68:	a1 e0       	ldi	r26, 0x01	; 1
    5e6a:	b0 e0       	ldi	r27, 0x00	; 0
  for(index = 0; index < 76800; index++)
  {
   // LCD_WR_DATA16(Color);
 
     LCD_WR_L();
    5e6c:	c3 9a       	sbi	0x18, 3	; 24
     DATA_LCD_PORT=Color>>8; 
    5e6e:	25 bb       	out	0x15, r18	; 21
     LCD_WR_H();
    5e70:	c3 98       	cbi	0x18, 3	; 24
     LCD_WR_L();
    5e72:	c3 9a       	sbi	0x18, 3	; 24
     DATA_LCD_PORT=Color&0XFF; 
    5e74:	c5 bb       	out	0x15, r28	; 21
     LCD_WR_H();
    5e76:	c3 98       	cbi	0x18, 3	; 24
    5e78:	01 97       	sbiw	r24, 0x01	; 1
    5e7a:	a1 09       	sbc	r26, r1
    5e7c:	b1 09       	sbc	r27, r1
    5e7e:	b7 ff       	sbrs	r27, 7
    5e80:	f5 cf       	rjmp	.-22     	; 0x5e6c <LCD_Clear+0x68>
 
   
  } 
   LCD_CS_H();
    5e82:	de 9a       	sbi	0x1b, 6	; 27
    5e84:	df 91       	pop	r29
    5e86:	cf 91       	pop	r28
    5e88:	08 95       	ret

00005e8a <LCD_Init>:
    5e8a:	8e 9a       	sbi	0x11, 6	; 17
    5e8c:	d6 9a       	sbi	0x1a, 6	; 26
    5e8e:	d7 9a       	sbi	0x1a, 7	; 26
    5e90:	bb 9a       	sbi	0x17, 3	; 23
    5e92:	ba 9a       	sbi	0x17, 2	; 23
    5e94:	b9 9a       	sbi	0x17, 1	; 23
    5e96:	c1 98       	cbi	0x18, 1	; 24
    5e98:	88 ee       	ldi	r24, 0xE8	; 232
    5e9a:	93 e0       	ldi	r25, 0x03	; 3
    5e9c:	0e 94 a3 2e 	call	0x5d46 <delay_ms>
    5ea0:	c1 9a       	sbi	0x18, 1	; 24
    5ea2:	88 ee       	ldi	r24, 0xE8	; 232
    5ea4:	93 e0       	ldi	r25, 0x03	; 3
    5ea6:	0e 94 a3 2e 	call	0x5d46 <delay_ms>
    5eaa:	60 e0       	ldi	r22, 0x00	; 0
    5eac:	70 e0       	ldi	r23, 0x00	; 0
    5eae:	81 e0       	ldi	r24, 0x01	; 1
    5eb0:	90 e0       	ldi	r25, 0x00	; 0
    5eb2:	0e 94 f7 2e 	call	0x5dee <LCD_WR_REG>
    5eb6:	60 e0       	ldi	r22, 0x00	; 0
    5eb8:	77 e0       	ldi	r23, 0x07	; 7
    5eba:	82 e0       	ldi	r24, 0x02	; 2
    5ebc:	90 e0       	ldi	r25, 0x00	; 0
    5ebe:	0e 94 f7 2e 	call	0x5dee <LCD_WR_REG>
    5ec2:	68 e1       	ldi	r22, 0x18	; 24
    5ec4:	70 e1       	ldi	r23, 0x10	; 16
    5ec6:	83 e0       	ldi	r24, 0x03	; 3
    5ec8:	90 e0       	ldi	r25, 0x00	; 0
    5eca:	0e 94 f7 2e 	call	0x5dee <LCD_WR_REG>
    5ece:	60 e0       	ldi	r22, 0x00	; 0
    5ed0:	70 e0       	ldi	r23, 0x00	; 0
    5ed2:	84 e0       	ldi	r24, 0x04	; 4
    5ed4:	90 e0       	ldi	r25, 0x00	; 0
    5ed6:	0e 94 f7 2e 	call	0x5dee <LCD_WR_REG>
    5eda:	67 e0       	ldi	r22, 0x07	; 7
    5edc:	72 e0       	ldi	r23, 0x02	; 2
    5ede:	88 e0       	ldi	r24, 0x08	; 8
    5ee0:	90 e0       	ldi	r25, 0x00	; 0
    5ee2:	0e 94 f7 2e 	call	0x5dee <LCD_WR_REG>
    5ee6:	60 e0       	ldi	r22, 0x00	; 0
    5ee8:	70 e0       	ldi	r23, 0x00	; 0
    5eea:	89 e0       	ldi	r24, 0x09	; 9
    5eec:	90 e0       	ldi	r25, 0x00	; 0
    5eee:	0e 94 f7 2e 	call	0x5dee <LCD_WR_REG>
    5ef2:	60 e0       	ldi	r22, 0x00	; 0
    5ef4:	70 e0       	ldi	r23, 0x00	; 0
    5ef6:	8a e0       	ldi	r24, 0x0A	; 10
    5ef8:	90 e0       	ldi	r25, 0x00	; 0
    5efa:	0e 94 f7 2e 	call	0x5dee <LCD_WR_REG>
    5efe:	60 e0       	ldi	r22, 0x00	; 0
    5f00:	70 e0       	ldi	r23, 0x00	; 0
    5f02:	8c e0       	ldi	r24, 0x0C	; 12
    5f04:	90 e0       	ldi	r25, 0x00	; 0
    5f06:	0e 94 f7 2e 	call	0x5dee <LCD_WR_REG>
    5f0a:	60 e0       	ldi	r22, 0x00	; 0
    5f0c:	70 e0       	ldi	r23, 0x00	; 0
    5f0e:	8d e0       	ldi	r24, 0x0D	; 13
    5f10:	90 e0       	ldi	r25, 0x00	; 0
    5f12:	0e 94 f7 2e 	call	0x5dee <LCD_WR_REG>
    5f16:	60 e0       	ldi	r22, 0x00	; 0
    5f18:	70 e0       	ldi	r23, 0x00	; 0
    5f1a:	8f e0       	ldi	r24, 0x0F	; 15
    5f1c:	90 e0       	ldi	r25, 0x00	; 0
    5f1e:	0e 94 f7 2e 	call	0x5dee <LCD_WR_REG>
    5f22:	60 e8       	ldi	r22, 0x80	; 128
    5f24:	70 e0       	ldi	r23, 0x00	; 0
    5f26:	80 e1       	ldi	r24, 0x10	; 16
    5f28:	90 e0       	ldi	r25, 0x00	; 0
    5f2a:	0e 94 f7 2e 	call	0x5dee <LCD_WR_REG>
    5f2e:	67 e0       	ldi	r22, 0x07	; 7
    5f30:	70 e0       	ldi	r23, 0x00	; 0
    5f32:	81 e1       	ldi	r24, 0x11	; 17
    5f34:	90 e0       	ldi	r25, 0x00	; 0
    5f36:	0e 94 f7 2e 	call	0x5dee <LCD_WR_REG>
    5f3a:	60 e0       	ldi	r22, 0x00	; 0
    5f3c:	70 e0       	ldi	r23, 0x00	; 0
    5f3e:	82 e1       	ldi	r24, 0x12	; 18
    5f40:	90 e0       	ldi	r25, 0x00	; 0
    5f42:	0e 94 f7 2e 	call	0x5dee <LCD_WR_REG>
    5f46:	60 e0       	ldi	r22, 0x00	; 0
    5f48:	70 e0       	ldi	r23, 0x00	; 0
    5f4a:	83 e1       	ldi	r24, 0x13	; 19
    5f4c:	90 e0       	ldi	r25, 0x00	; 0
    5f4e:	0e 94 f7 2e 	call	0x5dee <LCD_WR_REG>
    5f52:	61 e0       	ldi	r22, 0x01	; 1
    5f54:	70 e0       	ldi	r23, 0x00	; 0
    5f56:	87 e0       	ldi	r24, 0x07	; 7
    5f58:	90 e0       	ldi	r25, 0x00	; 0
    5f5a:	0e 94 f7 2e 	call	0x5dee <LCD_WR_REG>
    5f5e:	80 ed       	ldi	r24, 0xD0	; 208
    5f60:	97 e0       	ldi	r25, 0x07	; 7
    5f62:	0e 94 a3 2e 	call	0x5d46 <delay_ms>
    5f66:	60 e9       	ldi	r22, 0x90	; 144
    5f68:	71 e1       	ldi	r23, 0x11	; 17
    5f6a:	80 e1       	ldi	r24, 0x10	; 16
    5f6c:	90 e0       	ldi	r25, 0x00	; 0
    5f6e:	0e 94 f7 2e 	call	0x5dee <LCD_WR_REG>
    5f72:	67 e2       	ldi	r22, 0x27	; 39
    5f74:	72 e0       	ldi	r23, 0x02	; 2
    5f76:	81 e1       	ldi	r24, 0x11	; 17
    5f78:	90 e0       	ldi	r25, 0x00	; 0
    5f7a:	0e 94 f7 2e 	call	0x5dee <LCD_WR_REG>
    5f7e:	88 ee       	ldi	r24, 0xE8	; 232
    5f80:	93 e0       	ldi	r25, 0x03	; 3
    5f82:	0e 94 a3 2e 	call	0x5d46 <delay_ms>
    5f86:	6a e1       	ldi	r22, 0x1A	; 26
    5f88:	70 e0       	ldi	r23, 0x00	; 0
    5f8a:	82 e1       	ldi	r24, 0x12	; 18
    5f8c:	90 e0       	ldi	r25, 0x00	; 0
    5f8e:	0e 94 f7 2e 	call	0x5dee <LCD_WR_REG>
    5f92:	88 ee       	ldi	r24, 0xE8	; 232
    5f94:	93 e0       	ldi	r25, 0x03	; 3
    5f96:	0e 94 a3 2e 	call	0x5d46 <delay_ms>
    5f9a:	60 e0       	ldi	r22, 0x00	; 0
    5f9c:	71 e1       	ldi	r23, 0x11	; 17
    5f9e:	83 e1       	ldi	r24, 0x13	; 19
    5fa0:	90 e0       	ldi	r25, 0x00	; 0
    5fa2:	0e 94 f7 2e 	call	0x5dee <LCD_WR_REG>
    5fa6:	6e e0       	ldi	r22, 0x0E	; 14
    5fa8:	70 e0       	ldi	r23, 0x00	; 0
    5faa:	89 e2       	ldi	r24, 0x29	; 41
    5fac:	90 e0       	ldi	r25, 0x00	; 0
    5fae:	0e 94 f7 2e 	call	0x5dee <LCD_WR_REG>
    5fb2:	6c e0       	ldi	r22, 0x0C	; 12
    5fb4:	70 e0       	ldi	r23, 0x00	; 0
    5fb6:	8b e2       	ldi	r24, 0x2B	; 43
    5fb8:	90 e0       	ldi	r25, 0x00	; 0
    5fba:	0e 94 f7 2e 	call	0x5dee <LCD_WR_REG>
    5fbe:	80 e9       	ldi	r24, 0x90	; 144
    5fc0:	91 e0       	ldi	r25, 0x01	; 1
    5fc2:	0e 94 a3 2e 	call	0x5d46 <delay_ms>
    5fc6:	60 e0       	ldi	r22, 0x00	; 0
    5fc8:	70 e0       	ldi	r23, 0x00	; 0
    5fca:	80 e2       	ldi	r24, 0x20	; 32
    5fcc:	90 e0       	ldi	r25, 0x00	; 0
    5fce:	0e 94 f7 2e 	call	0x5dee <LCD_WR_REG>
    5fd2:	6f e3       	ldi	r22, 0x3F	; 63
    5fd4:	71 e0       	ldi	r23, 0x01	; 1
    5fd6:	81 e2       	ldi	r24, 0x21	; 33
    5fd8:	90 e0       	ldi	r25, 0x00	; 0
    5fda:	0e 94 f7 2e 	call	0x5dee <LCD_WR_REG>
    5fde:	60 e0       	ldi	r22, 0x00	; 0
    5fe0:	70 e0       	ldi	r23, 0x00	; 0
    5fe2:	80 e3       	ldi	r24, 0x30	; 48
    5fe4:	90 e0       	ldi	r25, 0x00	; 0
    5fe6:	0e 94 f7 2e 	call	0x5dee <LCD_WR_REG>
    5fea:	66 e0       	ldi	r22, 0x06	; 6
    5fec:	76 e0       	ldi	r23, 0x06	; 6
    5fee:	81 e3       	ldi	r24, 0x31	; 49
    5ff0:	90 e0       	ldi	r25, 0x00	; 0
    5ff2:	0e 94 f7 2e 	call	0x5dee <LCD_WR_REG>
    5ff6:	65 e0       	ldi	r22, 0x05	; 5
    5ff8:	75 e0       	ldi	r23, 0x05	; 5
    5ffa:	82 e3       	ldi	r24, 0x32	; 50
    5ffc:	90 e0       	ldi	r25, 0x00	; 0
    5ffe:	0e 94 f7 2e 	call	0x5dee <LCD_WR_REG>
    6002:	66 e0       	ldi	r22, 0x06	; 6
    6004:	71 e0       	ldi	r23, 0x01	; 1
    6006:	85 e3       	ldi	r24, 0x35	; 53
    6008:	90 e0       	ldi	r25, 0x00	; 0
    600a:	0e 94 f7 2e 	call	0x5dee <LCD_WR_REG>
    600e:	62 e0       	ldi	r22, 0x02	; 2
    6010:	72 e0       	ldi	r23, 0x02	; 2
    6012:	86 e3       	ldi	r24, 0x36	; 54
    6014:	90 e0       	ldi	r25, 0x00	; 0
    6016:	0e 94 f7 2e 	call	0x5dee <LCD_WR_REG>
    601a:	60 e0       	ldi	r22, 0x00	; 0
    601c:	70 e0       	ldi	r23, 0x00	; 0
    601e:	87 e3       	ldi	r24, 0x37	; 55
    6020:	90 e0       	ldi	r25, 0x00	; 0
    6022:	0e 94 f7 2e 	call	0x5dee <LCD_WR_REG>
    6026:	62 e0       	ldi	r22, 0x02	; 2
    6028:	72 e0       	ldi	r23, 0x02	; 2
    602a:	88 e3       	ldi	r24, 0x38	; 56
    602c:	90 e0       	ldi	r25, 0x00	; 0
    602e:	0e 94 f7 2e 	call	0x5dee <LCD_WR_REG>
    6032:	65 e0       	ldi	r22, 0x05	; 5
    6034:	75 e0       	ldi	r23, 0x05	; 5
    6036:	89 e3       	ldi	r24, 0x39	; 57
    6038:	90 e0       	ldi	r25, 0x00	; 0
    603a:	0e 94 f7 2e 	call	0x5dee <LCD_WR_REG>
    603e:	62 e0       	ldi	r22, 0x02	; 2
    6040:	72 e0       	ldi	r23, 0x02	; 2
    6042:	8c e3       	ldi	r24, 0x3C	; 60
    6044:	90 e0       	ldi	r25, 0x00	; 0
    6046:	0e 94 f7 2e 	call	0x5dee <LCD_WR_REG>
    604a:	61 e0       	ldi	r22, 0x01	; 1
    604c:	7f e1       	ldi	r23, 0x1F	; 31
    604e:	8d e3       	ldi	r24, 0x3D	; 61
    6050:	90 e0       	ldi	r25, 0x00	; 0
    6052:	0e 94 f7 2e 	call	0x5dee <LCD_WR_REG>
    6056:	60 e0       	ldi	r22, 0x00	; 0
    6058:	70 e0       	ldi	r23, 0x00	; 0
    605a:	80 e5       	ldi	r24, 0x50	; 80
    605c:	90 e0       	ldi	r25, 0x00	; 0
    605e:	0e 94 f7 2e 	call	0x5dee <LCD_WR_REG>
    6062:	6f ee       	ldi	r22, 0xEF	; 239
    6064:	70 e0       	ldi	r23, 0x00	; 0
    6066:	81 e5       	ldi	r24, 0x51	; 81
    6068:	90 e0       	ldi	r25, 0x00	; 0
    606a:	0e 94 f7 2e 	call	0x5dee <LCD_WR_REG>
    606e:	60 e0       	ldi	r22, 0x00	; 0
    6070:	70 e0       	ldi	r23, 0x00	; 0
    6072:	82 e5       	ldi	r24, 0x52	; 82
    6074:	90 e0       	ldi	r25, 0x00	; 0
    6076:	0e 94 f7 2e 	call	0x5dee <LCD_WR_REG>
    607a:	6f e3       	ldi	r22, 0x3F	; 63
    607c:	71 e0       	ldi	r23, 0x01	; 1
    607e:	83 e5       	ldi	r24, 0x53	; 83
    6080:	90 e0       	ldi	r25, 0x00	; 0
    6082:	0e 94 f7 2e 	call	0x5dee <LCD_WR_REG>
    6086:	60 e0       	ldi	r22, 0x00	; 0
    6088:	77 ea       	ldi	r23, 0xA7	; 167
    608a:	80 e6       	ldi	r24, 0x60	; 96
    608c:	90 e0       	ldi	r25, 0x00	; 0
    608e:	0e 94 f7 2e 	call	0x5dee <LCD_WR_REG>
    6092:	61 e0       	ldi	r22, 0x01	; 1
    6094:	70 e0       	ldi	r23, 0x00	; 0
    6096:	81 e6       	ldi	r24, 0x61	; 97
    6098:	90 e0       	ldi	r25, 0x00	; 0
    609a:	0e 94 f7 2e 	call	0x5dee <LCD_WR_REG>
    609e:	60 e0       	ldi	r22, 0x00	; 0
    60a0:	70 e0       	ldi	r23, 0x00	; 0
    60a2:	8a e6       	ldi	r24, 0x6A	; 106
    60a4:	90 e0       	ldi	r25, 0x00	; 0
    60a6:	0e 94 f7 2e 	call	0x5dee <LCD_WR_REG>
    60aa:	60 e0       	ldi	r22, 0x00	; 0
    60ac:	70 e0       	ldi	r23, 0x00	; 0
    60ae:	80 e8       	ldi	r24, 0x80	; 128
    60b0:	90 e0       	ldi	r25, 0x00	; 0
    60b2:	0e 94 f7 2e 	call	0x5dee <LCD_WR_REG>
    60b6:	60 e0       	ldi	r22, 0x00	; 0
    60b8:	70 e0       	ldi	r23, 0x00	; 0
    60ba:	81 e8       	ldi	r24, 0x81	; 129
    60bc:	90 e0       	ldi	r25, 0x00	; 0
    60be:	0e 94 f7 2e 	call	0x5dee <LCD_WR_REG>
    60c2:	60 e0       	ldi	r22, 0x00	; 0
    60c4:	70 e0       	ldi	r23, 0x00	; 0
    60c6:	82 e8       	ldi	r24, 0x82	; 130
    60c8:	90 e0       	ldi	r25, 0x00	; 0
    60ca:	0e 94 f7 2e 	call	0x5dee <LCD_WR_REG>
    60ce:	60 e0       	ldi	r22, 0x00	; 0
    60d0:	70 e0       	ldi	r23, 0x00	; 0
    60d2:	83 e8       	ldi	r24, 0x83	; 131
    60d4:	90 e0       	ldi	r25, 0x00	; 0
    60d6:	0e 94 f7 2e 	call	0x5dee <LCD_WR_REG>
    60da:	60 e0       	ldi	r22, 0x00	; 0
    60dc:	70 e0       	ldi	r23, 0x00	; 0
    60de:	84 e8       	ldi	r24, 0x84	; 132
    60e0:	90 e0       	ldi	r25, 0x00	; 0
    60e2:	0e 94 f7 2e 	call	0x5dee <LCD_WR_REG>
    60e6:	60 e0       	ldi	r22, 0x00	; 0
    60e8:	70 e0       	ldi	r23, 0x00	; 0
    60ea:	85 e8       	ldi	r24, 0x85	; 133
    60ec:	90 e0       	ldi	r25, 0x00	; 0
    60ee:	0e 94 f7 2e 	call	0x5dee <LCD_WR_REG>
    60f2:	60 e1       	ldi	r22, 0x10	; 16
    60f4:	70 e0       	ldi	r23, 0x00	; 0
    60f6:	80 e9       	ldi	r24, 0x90	; 144
    60f8:	90 e0       	ldi	r25, 0x00	; 0
    60fa:	0e 94 f7 2e 	call	0x5dee <LCD_WR_REG>
    60fe:	60 e0       	ldi	r22, 0x00	; 0
    6100:	76 e0       	ldi	r23, 0x06	; 6
    6102:	82 e9       	ldi	r24, 0x92	; 146
    6104:	90 e0       	ldi	r25, 0x00	; 0
    6106:	0e 94 f7 2e 	call	0x5dee <LCD_WR_REG>
    610a:	63 e0       	ldi	r22, 0x03	; 3
    610c:	70 e0       	ldi	r23, 0x00	; 0
    610e:	83 e9       	ldi	r24, 0x93	; 147
    6110:	90 e0       	ldi	r25, 0x00	; 0
    6112:	0e 94 f7 2e 	call	0x5dee <LCD_WR_REG>
    6116:	60 e1       	ldi	r22, 0x10	; 16
    6118:	71 e0       	ldi	r23, 0x01	; 1
    611a:	85 e9       	ldi	r24, 0x95	; 149
    611c:	90 e0       	ldi	r25, 0x00	; 0
    611e:	0e 94 f7 2e 	call	0x5dee <LCD_WR_REG>
    6122:	60 e0       	ldi	r22, 0x00	; 0
    6124:	70 e0       	ldi	r23, 0x00	; 0
    6126:	87 e9       	ldi	r24, 0x97	; 151
    6128:	90 e0       	ldi	r25, 0x00	; 0
    612a:	0e 94 f7 2e 	call	0x5dee <LCD_WR_REG>
    612e:	60 e0       	ldi	r22, 0x00	; 0
    6130:	70 e0       	ldi	r23, 0x00	; 0
    6132:	88 e9       	ldi	r24, 0x98	; 152
    6134:	90 e0       	ldi	r25, 0x00	; 0
    6136:	0e 94 f7 2e 	call	0x5dee <LCD_WR_REG>
    613a:	63 e7       	ldi	r22, 0x73	; 115
    613c:	71 e0       	ldi	r23, 0x01	; 1
    613e:	87 e0       	ldi	r24, 0x07	; 7
    6140:	90 e0       	ldi	r25, 0x00	; 0
    6142:	0e 94 f7 2e 	call	0x5dee <LCD_WR_REG>
    6146:	80 e0       	ldi	r24, 0x00	; 0
    6148:	90 e0       	ldi	r25, 0x00	; 0
    614a:	0e 94 02 2f 	call	0x5e04 <LCD_Clear>
    614e:	88 ec       	ldi	r24, 0xC8	; 200
    6150:	90 e0       	ldi	r25, 0x00	; 0
    6152:	0e 94 a3 2e 	call	0x5d46 <delay_ms>
    6156:	96 9a       	sbi	0x12, 6	; 18
    6158:	08 95       	ret

0000615a <LCD_write_english>:
}

void LCD_write_english(unsigned char data,unsigned int color,unsigned int xcolor)//
{
    615a:	bf 92       	push	r11
    615c:	cf 92       	push	r12
    615e:	df 92       	push	r13
    6160:	ef 92       	push	r14
    6162:	ff 92       	push	r15
    6164:	0f 93       	push	r16
    6166:	1f 93       	push	r17
    6168:	cf 93       	push	r28
    616a:	b8 2e       	mov	r11, r24
    616c:	6b 01       	movw	r12, r22
    616e:	7a 01       	movw	r14, r20

  unsigned char avl,i,n;
   LCD_WR_REG16(0x0022);  
    6170:	82 e2       	ldi	r24, 0x22	; 34
    6172:	90 e0       	ldi	r25, 0x00	; 0
    6174:	0e 94 d5 2e 	call	0x5daa <LCD_WR_REG16>
  for (i=0;i<16;i++)
    6178:	00 e0       	ldi	r16, 0x00	; 0
  { 
      avl=pgm_read_byte( &english[data-32][i]);
    617a:	eb 2d       	mov	r30, r11
    617c:	ff 27       	eor	r31, r31
    617e:	34 e0       	ldi	r19, 0x04	; 4
    6180:	ee 0f       	add	r30, r30
    6182:	ff 1f       	adc	r31, r31
    6184:	3a 95       	dec	r19
    6186:	e1 f7       	brne	.-8      	; 0x6180 <LCD_write_english+0x26>
    6188:	e0 0f       	add	r30, r16
    618a:	f1 1d       	adc	r31, r1
    618c:	e0 57       	subi	r30, 0x70	; 112
    618e:	fd 4a       	sbci	r31, 0xAD	; 173
    6190:	c4 91       	lpm	r28, Z
    6192:	17 e0       	ldi	r17, 0x07	; 7
	  for (n=0;n<8;n++)
	   {
	     if(avl&0x80) LCD_WR_DATA16(color);
    6194:	c7 ff       	sbrs	r28, 7
    6196:	02 c0       	rjmp	.+4      	; 0x619c <LCD_write_english+0x42>
    6198:	c6 01       	movw	r24, r12
    619a:	01 c0       	rjmp	.+2      	; 0x619e <LCD_write_english+0x44>
             else LCD_WR_DATA16(xcolor);
    619c:	c7 01       	movw	r24, r14
    619e:	0e 94 b7 2e 	call	0x5d6e <LCD_WR_DATA16>
           
	     avl<<=1;
    61a2:	cc 0f       	add	r28, r28
    61a4:	11 50       	subi	r17, 0x01	; 1
    61a6:	17 ff       	sbrs	r17, 7
    61a8:	f5 cf       	rjmp	.-22     	; 0x6194 <LCD_write_english+0x3a>
    61aa:	0f 5f       	subi	r16, 0xFF	; 255
    61ac:	00 31       	cpi	r16, 0x10	; 16
    61ae:	28 f3       	brcs	.-54     	; 0x617a <LCD_write_english+0x20>
    61b0:	cf 91       	pop	r28
    61b2:	1f 91       	pop	r17
    61b4:	0f 91       	pop	r16
    61b6:	ff 90       	pop	r15
    61b8:	ef 90       	pop	r14
    61ba:	df 90       	pop	r13
    61bc:	cf 90       	pop	r12
    61be:	bf 90       	pop	r11
    61c0:	08 95       	ret

000061c2 <LCD_SetCursor>:
	   }
	}
}
void LCD_write_english_string(unsigned int x,unsigned int y,unsigned char *s,unsigned int color,unsigned int xcolor)//
{
 unsigned int k=0;
 while (*s) 
  {
     Lcd_SetBox(y,x+k,15,8);
     LCD_write_english( *s,color,xcolor);
     k=k+8;
     s++;
  
  }

}  

void LCD_write_SUM(unsigned int x,unsigned int y,unsigned char SUM,unsigned int color,unsigned int xcolor)//
{

  unsigned char avl,i,n;
   Lcd_SetBox(y,x,15,8);
   LCD_WR_REG16(0x0022);  
  for (i=0;i<16;i++)
  { 
      avl=pgm_read_byte( &english[SUM+16][i]);
	  for (n=0;n<8;n++)
	   {
	     if(avl&0x80) LCD_WR_DATA16(color);
             else LCD_WR_DATA16(xcolor);
           
	     avl<<=1;
	   }
	}
}
/**********************************************
Lcd
Lcd

xStart yStart

xStart x
          ySrart y
          xLong x
          yLong  y

***********************************************/
void Lcd_SetBox(unsigned int xStart,unsigned int yStart,unsigned int xLong,unsigned int yLong)
{
  
#if ID_AM==000    
	LCD_SetCursor(xStart+xLong-1,312-yStart+yLong-1);

#elif ID_AM==001
	LCD_SetCursor(xStart+xLong-1,312-yStart+yLong-1);
     
#elif ID_AM==010
	LCD_SetCursor(xStart,312-yStart+yLong-1);
     
#elif ID_AM==011 
	LCD_SetCursor(xStart,312-yStart+yLong-1);
     
#elif ID_AM==100
	LCD_SetCursor(xStart+xLong-1,312-yStart);     
     
#elif ID_AM==101
	LCD_SetCursor(xStart+xLong-1,312-yStart);     
     
#elif ID_AM==110
	LCD_SetCursor(xStart,312-yStart); 
     
#elif ID_AM==111
	LCD_SetCursor(xStart,312-yStart);  
     
#endif
     
	LCD_WR_REG(0x0050,xStart);// GRAM
	LCD_WR_REG(0x0051,xStart+xLong-1);//GRAM
	LCD_WR_REG(0x0052,312-yStart);//GRAM
	LCD_WR_REG(0x0053,312-yStart+yLong-1);//GRAM 
}


/*************************************************
Lcd
320240
x  0~239
          y  0~319

*************************************************/
void LCD_SetCursor(unsigned int Xpos, unsigned int Ypos)
{
    61c2:	0f 93       	push	r16
    61c4:	1f 93       	push	r17
    61c6:	8b 01       	movw	r16, r22
 // CLR_RS;
  LCD_WR_REG(0x20, Xpos);
    61c8:	bc 01       	movw	r22, r24
    61ca:	80 e2       	ldi	r24, 0x20	; 32
    61cc:	90 e0       	ldi	r25, 0x00	; 0
    61ce:	0e 94 f7 2e 	call	0x5dee <LCD_WR_REG>
  LCD_WR_REG(0x21, Ypos);
    61d2:	b8 01       	movw	r22, r16
    61d4:	81 e2       	ldi	r24, 0x21	; 33
    61d6:	90 e0       	ldi	r25, 0x00	; 0
    61d8:	0e 94 f7 2e 	call	0x5dee <LCD_WR_REG>
    61dc:	1f 91       	pop	r17
    61de:	0f 91       	pop	r16
    61e0:	08 95       	ret

000061e2 <Lcd_SetBox>:
    61e2:	af 92       	push	r10
    61e4:	bf 92       	push	r11
    61e6:	cf 92       	push	r12
    61e8:	df 92       	push	r13
    61ea:	ef 92       	push	r14
    61ec:	ff 92       	push	r15
    61ee:	0f 93       	push	r16
    61f0:	1f 93       	push	r17
    61f2:	8c 01       	movw	r16, r24
    61f4:	5b 01       	movw	r10, r22
    61f6:	6a 01       	movw	r12, r20
    61f8:	79 01       	movw	r14, r18
    61fa:	e6 1a       	sub	r14, r22
    61fc:	f7 0a       	sbc	r15, r23
    61fe:	87 e3       	ldi	r24, 0x37	; 55
    6200:	91 e0       	ldi	r25, 0x01	; 1
    6202:	e8 0e       	add	r14, r24
    6204:	f9 1e       	adc	r15, r25
    6206:	b7 01       	movw	r22, r14
    6208:	c8 01       	movw	r24, r16
    620a:	0e 94 e1 30 	call	0x61c2 <LCD_SetCursor>
    620e:	b8 01       	movw	r22, r16
    6210:	80 e5       	ldi	r24, 0x50	; 80
    6212:	90 e0       	ldi	r25, 0x00	; 0
    6214:	0e 94 f7 2e 	call	0x5dee <LCD_WR_REG>
    6218:	0c 0d       	add	r16, r12
    621a:	1d 1d       	adc	r17, r13
    621c:	01 50       	subi	r16, 0x01	; 1
    621e:	10 40       	sbci	r17, 0x00	; 0
    6220:	b8 01       	movw	r22, r16
    6222:	81 e5       	ldi	r24, 0x51	; 81
    6224:	90 e0       	ldi	r25, 0x00	; 0
    6226:	0e 94 f7 2e 	call	0x5dee <LCD_WR_REG>
    622a:	88 e3       	ldi	r24, 0x38	; 56
    622c:	91 e0       	ldi	r25, 0x01	; 1
    622e:	8a 19       	sub	r24, r10
    6230:	9b 09       	sbc	r25, r11
    6232:	bc 01       	movw	r22, r24
    6234:	82 e5       	ldi	r24, 0x52	; 82
    6236:	90 e0       	ldi	r25, 0x00	; 0
    6238:	0e 94 f7 2e 	call	0x5dee <LCD_WR_REG>
    623c:	b7 01       	movw	r22, r14
    623e:	83 e5       	ldi	r24, 0x53	; 83
    6240:	90 e0       	ldi	r25, 0x00	; 0
    6242:	0e 94 f7 2e 	call	0x5dee <LCD_WR_REG>
    6246:	1f 91       	pop	r17
    6248:	0f 91       	pop	r16
    624a:	ff 90       	pop	r15
    624c:	ef 90       	pop	r14
    624e:	df 90       	pop	r13
    6250:	cf 90       	pop	r12
    6252:	bf 90       	pop	r11
    6254:	af 90       	pop	r10
    6256:	08 95       	ret

00006258 <LCD_write_SUM>:
    6258:	bf 92       	push	r11
    625a:	cf 92       	push	r12
    625c:	df 92       	push	r13
    625e:	ef 92       	push	r14
    6260:	ff 92       	push	r15
    6262:	0f 93       	push	r16
    6264:	1f 93       	push	r17
    6266:	cf 93       	push	r28
    6268:	fb 01       	movw	r30, r22
    626a:	b4 2e       	mov	r11, r20
    626c:	69 01       	movw	r12, r18
    626e:	78 01       	movw	r14, r16
    6270:	28 e0       	ldi	r18, 0x08	; 8
    6272:	30 e0       	ldi	r19, 0x00	; 0
    6274:	4f e0       	ldi	r20, 0x0F	; 15
    6276:	50 e0       	ldi	r21, 0x00	; 0
    6278:	bc 01       	movw	r22, r24
    627a:	cf 01       	movw	r24, r30
    627c:	0e 94 f1 30 	call	0x61e2 <Lcd_SetBox>
    6280:	82 e2       	ldi	r24, 0x22	; 34
    6282:	90 e0       	ldi	r25, 0x00	; 0
    6284:	0e 94 d5 2e 	call	0x5daa <LCD_WR_REG16>
    6288:	00 e0       	ldi	r16, 0x00	; 0
    628a:	eb 2d       	mov	r30, r11
    628c:	ff 27       	eor	r31, r31
    628e:	44 e0       	ldi	r20, 0x04	; 4
    6290:	ee 0f       	add	r30, r30
    6292:	ff 1f       	adc	r31, r31
    6294:	4a 95       	dec	r20
    6296:	e1 f7       	brne	.-8      	; 0x6290 <LCD_write_SUM+0x38>
    6298:	e0 0f       	add	r30, r16
    629a:	f1 1d       	adc	r31, r1
    629c:	e0 57       	subi	r30, 0x70	; 112
    629e:	fa 4a       	sbci	r31, 0xAA	; 170
    62a0:	c4 91       	lpm	r28, Z
    62a2:	17 e0       	ldi	r17, 0x07	; 7
    62a4:	c7 ff       	sbrs	r28, 7
    62a6:	02 c0       	rjmp	.+4      	; 0x62ac <LCD_write_SUM+0x54>
    62a8:	c6 01       	movw	r24, r12
    62aa:	01 c0       	rjmp	.+2      	; 0x62ae <LCD_write_SUM+0x56>
    62ac:	c7 01       	movw	r24, r14
    62ae:	0e 94 b7 2e 	call	0x5d6e <LCD_WR_DATA16>
    62b2:	cc 0f       	add	r28, r28
    62b4:	11 50       	subi	r17, 0x01	; 1
    62b6:	17 ff       	sbrs	r17, 7
    62b8:	f5 cf       	rjmp	.-22     	; 0x62a4 <LCD_write_SUM+0x4c>
    62ba:	0f 5f       	subi	r16, 0xFF	; 255
    62bc:	00 31       	cpi	r16, 0x10	; 16
    62be:	28 f3       	brcs	.-54     	; 0x628a <LCD_write_SUM+0x32>
    62c0:	cf 91       	pop	r28
    62c2:	1f 91       	pop	r17
    62c4:	0f 91       	pop	r16
    62c6:	ff 90       	pop	r15
    62c8:	ef 90       	pop	r14
    62ca:	df 90       	pop	r13
    62cc:	cf 90       	pop	r12
    62ce:	bf 90       	pop	r11
    62d0:	08 95       	ret

000062d2 <LCD_write_english_string>:
    62d2:	af 92       	push	r10
    62d4:	bf 92       	push	r11
    62d6:	cf 92       	push	r12
    62d8:	df 92       	push	r13
    62da:	ef 92       	push	r14
    62dc:	ff 92       	push	r15
    62de:	0f 93       	push	r16
    62e0:	1f 93       	push	r17
    62e2:	cf 93       	push	r28
    62e4:	df 93       	push	r29
    62e6:	fc 01       	movw	r30, r24
    62e8:	5b 01       	movw	r10, r22
    62ea:	7a 01       	movw	r14, r20
    62ec:	69 01       	movw	r12, r18
    62ee:	da 01       	movw	r26, r20
    62f0:	8c 91       	ld	r24, X
    62f2:	88 23       	and	r24, r24
    62f4:	a9 f0       	breq	.+42     	; 0x6320 <LCD_write_english_string+0x4e>
    62f6:	ef 01       	movw	r28, r30
    62f8:	28 e0       	ldi	r18, 0x08	; 8
    62fa:	30 e0       	ldi	r19, 0x00	; 0
    62fc:	4f e0       	ldi	r20, 0x0F	; 15
    62fe:	50 e0       	ldi	r21, 0x00	; 0
    6300:	be 01       	movw	r22, r28
    6302:	c5 01       	movw	r24, r10
    6304:	0e 94 f1 30 	call	0x61e2 <Lcd_SetBox>
    6308:	a8 01       	movw	r20, r16
    630a:	b6 01       	movw	r22, r12
    630c:	f7 01       	movw	r30, r14
    630e:	81 91       	ld	r24, Z+
    6310:	7f 01       	movw	r14, r30
    6312:	0e 94 ad 30 	call	0x615a <LCD_write_english>
    6316:	28 96       	adiw	r28, 0x08	; 8
    6318:	d7 01       	movw	r26, r14
    631a:	8c 91       	ld	r24, X
    631c:	88 23       	and	r24, r24
    631e:	61 f7       	brne	.-40     	; 0x62f8 <LCD_write_english_string+0x26>
    6320:	df 91       	pop	r29
    6322:	cf 91       	pop	r28
    6324:	1f 91       	pop	r17
    6326:	0f 91       	pop	r16
    6328:	ff 90       	pop	r15
    632a:	ef 90       	pop	r14
    632c:	df 90       	pop	r13
    632e:	cf 90       	pop	r12
    6330:	bf 90       	pop	r11
    6332:	af 90       	pop	r10
    6334:	08 95       	ret

00006336 <Test_tu>:
}


void Test_tu(void)
{
   unsigned int i;
  // unsigned char  val;
  LCD_WR_REG(0x0020,20);//LcdGRAM
    6336:	64 e1       	ldi	r22, 0x14	; 20
    6338:	70 e0       	ldi	r23, 0x00	; 0
    633a:	80 e2       	ldi	r24, 0x20	; 32
    633c:	90 e0       	ldi	r25, 0x00	; 0
    633e:	0e 94 f7 2e 	call	0x5dee <LCD_WR_REG>
  LCD_WR_REG(0x0021,105); //LcdGRAM     
    6342:	69 e6       	ldi	r22, 0x69	; 105
    6344:	70 e0       	ldi	r23, 0x00	; 0
    6346:	81 e2       	ldi	r24, 0x21	; 33
    6348:	90 e0       	ldi	r25, 0x00	; 0
    634a:	0e 94 f7 2e 	call	0x5dee <LCD_WR_REG>

  LCD_WR_REG(0x0050,20);// GRAM
    634e:	64 e1       	ldi	r22, 0x14	; 20
    6350:	70 e0       	ldi	r23, 0x00	; 0
    6352:	80 e5       	ldi	r24, 0x50	; 80
    6354:	90 e0       	ldi	r25, 0x00	; 0
    6356:	0e 94 f7 2e 	call	0x5dee <LCD_WR_REG>
  LCD_WR_REG(0x0051,207);//GRAM
    635a:	6f ec       	ldi	r22, 0xCF	; 207
    635c:	70 e0       	ldi	r23, 0x00	; 0
    635e:	81 e5       	ldi	r24, 0x51	; 81
    6360:	90 e0       	ldi	r25, 0x00	; 0
    6362:	0e 94 f7 2e 	call	0x5dee <LCD_WR_REG>
  LCD_WR_REG(0x0052,105);//GRAM
    6366:	69 e6       	ldi	r22, 0x69	; 105
    6368:	70 e0       	ldi	r23, 0x00	; 0
    636a:	82 e5       	ldi	r24, 0x52	; 82
    636c:	90 e0       	ldi	r25, 0x00	; 0
    636e:	0e 94 f7 2e 	call	0x5dee <LCD_WR_REG>
  LCD_WR_REG(0x0053,207);//GRAM 
    6372:	6f ec       	ldi	r22, 0xCF	; 207
    6374:	70 e0       	ldi	r23, 0x00	; 0
    6376:	83 e5       	ldi	r24, 0x53	; 83
    6378:	90 e0       	ldi	r25, 0x00	; 0
    637a:	0e 94 f7 2e 	call	0x5dee <LCD_WR_REG>
  LCD_WR_REG16(0x0022);
    637e:	82 e2       	ldi	r24, 0x22	; 34
    6380:	90 e0       	ldi	r25, 0x00	; 0
    6382:	0e 94 d5 2e 	call	0x5daa <LCD_WR_REG16>
    	
   LCD_RD_H();
    6386:	c2 9a       	sbi	0x18, 2	; 24
   LCD_RS_H();
    6388:	df 9a       	sbi	0x1b, 7	; 27
   LCD_CS_L(); 
    638a:	de 98       	cbi	0x1b, 6	; 27
  for (i=0;i<21218;)
    638c:	20 e0       	ldi	r18, 0x00	; 0
    638e:	30 e0       	ldi	r19, 0x00	; 0
  { 

     LCD_WR_L();
    6390:	c3 9a       	sbi	0x18, 3	; 24
	 //LCD_WR_L();
     DATA_LCD_PORT=pgm_read_byte(&gImage[i++]);
    6392:	f9 01       	movw	r30, r18
    6394:	e2 55       	subi	r30, 0x52	; 82
    6396:	fe 4f       	sbci	r31, 0xFE	; 254
    6398:	2f 5f       	subi	r18, 0xFF	; 255
    639a:	3f 4f       	sbci	r19, 0xFF	; 255
    639c:	84 91       	lpm	r24, Z
    639e:	85 bb       	out	0x15, r24	; 21
     LCD_WR_H();
    63a0:	c3 98       	cbi	0x18, 3	; 24

     LCD_WR_L();
    63a2:	c3 9a       	sbi	0x18, 3	; 24
	 //LCD_WR_L();
     DATA_LCD_PORT=pgm_read_byte(&gImage[i++]);
    63a4:	f9 01       	movw	r30, r18
    63a6:	e2 55       	subi	r30, 0x52	; 82
    63a8:	fe 4f       	sbci	r31, 0xFE	; 254
    63aa:	2f 5f       	subi	r18, 0xFF	; 255
    63ac:	3f 4f       	sbci	r19, 0xFF	; 255
    63ae:	84 91       	lpm	r24, Z
    63b0:	85 bb       	out	0x15, r24	; 21
     LCD_WR_H(); 
    63b2:	c3 98       	cbi	0x18, 3	; 24
    63b4:	82 e5       	ldi	r24, 0x52	; 82
    63b6:	22 3e       	cpi	r18, 0xE2	; 226
    63b8:	38 07       	cpc	r19, r24
    63ba:	50 f3       	brcs	.-44     	; 0x6390 <Test_tu+0x5a>

	}
   LCD_CS_H();
    63bc:	de 9a       	sbi	0x1b, 6	; 27
    63be:	08 95       	ret

000063c0 <Test>:
}





void Test(void)
{       
    63c0:	af 92       	push	r10
    63c2:	bf 92       	push	r11
    63c4:	cf 92       	push	r12
    63c6:	df 92       	push	r13
    63c8:	ef 92       	push	r14
    63ca:	ff 92       	push	r15
    63cc:	0f 93       	push	r16
    63ce:	1f 93       	push	r17
        unsigned long n,i;
       LCD_WR_REG(0x0020,0x0000);//GRAM
    63d0:	60 e0       	ldi	r22, 0x00	; 0
    63d2:	70 e0       	ldi	r23, 0x00	; 0
    63d4:	80 e2       	ldi	r24, 0x20	; 32
    63d6:	90 e0       	ldi	r25, 0x00	; 0
    63d8:	0e 94 f7 2e 	call	0x5dee <LCD_WR_REG>
       LCD_WR_REG(0x0021,0x0000); 
    63dc:	60 e0       	ldi	r22, 0x00	; 0
    63de:	70 e0       	ldi	r23, 0x00	; 0
    63e0:	81 e2       	ldi	r24, 0x21	; 33
    63e2:	90 e0       	ldi	r25, 0x00	; 0
    63e4:	0e 94 f7 2e 	call	0x5dee <LCD_WR_REG>
        for(i=0;i<7;i++)
    63e8:	ee 24       	eor	r14, r14
    63ea:	ff 24       	eor	r15, r15
    63ec:	87 01       	movw	r16, r14
          
        {       
        
            
	        LCD_WR_REG(0x0050,0x00);// GRAM
    63ee:	60 e0       	ldi	r22, 0x00	; 0
    63f0:	70 e0       	ldi	r23, 0x00	; 0
    63f2:	80 e5       	ldi	r24, 0x50	; 80
    63f4:	90 e0       	ldi	r25, 0x00	; 0
    63f6:	0e 94 f7 2e 	call	0x5dee <LCD_WR_REG>
	        LCD_WR_REG(0x0051,239);//GRAM
    63fa:	6f ee       	ldi	r22, 0xEF	; 239
    63fc:	70 e0       	ldi	r23, 0x00	; 0
    63fe:	81 e5       	ldi	r24, 0x51	; 81
    6400:	90 e0       	ldi	r25, 0x00	; 0
    6402:	0e 94 f7 2e 	call	0x5dee <LCD_WR_REG>
	        LCD_WR_REG(0x0052,0x00);//GRAM
    6406:	60 e0       	ldi	r22, 0x00	; 0
    6408:	70 e0       	ldi	r23, 0x00	; 0
    640a:	82 e5       	ldi	r24, 0x52	; 82
    640c:	90 e0       	ldi	r25, 0x00	; 0
    640e:	0e 94 f7 2e 	call	0x5dee <LCD_WR_REG>
	        LCD_WR_REG(0x0053,319);//GRAM 
    6412:	6f e3       	ldi	r22, 0x3F	; 63
    6414:	71 e0       	ldi	r23, 0x01	; 1
    6416:	83 e5       	ldi	r24, 0x53	; 83
    6418:	90 e0       	ldi	r25, 0x00	; 0
    641a:	0e 94 f7 2e 	call	0x5dee <LCD_WR_REG>
           
            LCD_WR_REG16(0x0022);       
    641e:	82 e2       	ldi	r24, 0x22	; 34
    6420:	90 e0       	ldi	r25, 0x00	; 0
    6422:	0e 94 d5 2e 	call	0x5daa <LCD_WR_REG16>
    6426:	5f ef       	ldi	r21, 0xFF	; 255
    6428:	a5 2e       	mov	r10, r21
    642a:	5b e2       	ldi	r21, 0x2B	; 43
    642c:	b5 2e       	mov	r11, r21
    642e:	51 e0       	ldi	r21, 0x01	; 1
    6430:	c5 2e       	mov	r12, r21
    6432:	d1 2c       	mov	r13, r1
                for(n=0;n<76800;n++)
                { 
                  
                  
                  if(i==0)LCD_WR_DATA16(BLUE);   
    6434:	e1 14       	cp	r14, r1
    6436:	f1 04       	cpc	r15, r1
    6438:	01 05       	cpc	r16, r1
    643a:	11 05       	cpc	r17, r1
    643c:	21 f4       	brne	.+8      	; 0x6446 <Test+0x86>
    643e:	8f e1       	ldi	r24, 0x1F	; 31
    6440:	90 e0       	ldi	r25, 0x00	; 0
    6442:	0e 94 b7 2e 	call	0x5d6e <LCD_WR_DATA16>
                  if(i==1)LCD_WR_DATA16(RED); 
    6446:	81 e0       	ldi	r24, 0x01	; 1
    6448:	e8 16       	cp	r14, r24
    644a:	f1 04       	cpc	r15, r1
    644c:	01 05       	cpc	r16, r1
    644e:	11 05       	cpc	r17, r1
    6450:	21 f4       	brne	.+8      	; 0x645a <Test+0x9a>
    6452:	80 e0       	ldi	r24, 0x00	; 0
    6454:	98 ef       	ldi	r25, 0xF8	; 248
    6456:	0e 94 b7 2e 	call	0x5d6e <LCD_WR_DATA16>
                  if(i==2)LCD_WR_DATA16(GREEN);
    645a:	82 e0       	ldi	r24, 0x02	; 2
    645c:	e8 16       	cp	r14, r24
    645e:	f1 04       	cpc	r15, r1
    6460:	01 05       	cpc	r16, r1
    6462:	11 05       	cpc	r17, r1
    6464:	21 f4       	brne	.+8      	; 0x646e <Test+0xae>
    6466:	80 ee       	ldi	r24, 0xE0	; 224
    6468:	97 e0       	ldi	r25, 0x07	; 7
    646a:	0e 94 b7 2e 	call	0x5d6e <LCD_WR_DATA16>
                  if(i==3)LCD_WR_DATA16(CYAN); 
    646e:	83 e0       	ldi	r24, 0x03	; 3
    6470:	e8 16       	cp	r14, r24
    6472:	f1 04       	cpc	r15, r1
    6474:	01 05       	cpc	r16, r1
    6476:	11 05       	cpc	r17, r1
    6478:	21 f4       	brne	.+8      	; 0x6482 <Test+0xc2>
    647a:	8f ef       	ldi	r24, 0xFF	; 255
    647c:	97 e0       	ldi	r25, 0x07	; 7
    647e:	0e 94 b7 2e 	call	0x5d6e <LCD_WR_DATA16>
                  if(i==4)LCD_WR_DATA16(MAGENTA); 
    6482:	84 e0       	ldi	r24, 0x04	; 4
    6484:	e8 16       	cp	r14, r24
    6486:	f1 04       	cpc	r15, r1
    6488:	01 05       	cpc	r16, r1
    648a:	11 05       	cpc	r17, r1
    648c:	21 f4       	brne	.+8      	; 0x6496 <Test+0xd6>
    648e:	8f e1       	ldi	r24, 0x1F	; 31
    6490:	98 ef       	ldi	r25, 0xF8	; 248
    6492:	0e 94 b7 2e 	call	0x5d6e <LCD_WR_DATA16>
                  if(i==5)LCD_WR_DATA16(YELLOW);
    6496:	85 e0       	ldi	r24, 0x05	; 5
    6498:	e8 16       	cp	r14, r24
    649a:	f1 04       	cpc	r15, r1
    649c:	01 05       	cpc	r16, r1
    649e:	11 05       	cpc	r17, r1
    64a0:	21 f4       	brne	.+8      	; 0x64aa <Test+0xea>
    64a2:	80 ee       	ldi	r24, 0xE0	; 224
    64a4:	9f ef       	ldi	r25, 0xFF	; 255
    64a6:	0e 94 b7 2e 	call	0x5d6e <LCD_WR_DATA16>
				  
                  if(i==6)LCD_WR_DATA16(BLACK); 
    64aa:	86 e0       	ldi	r24, 0x06	; 6
    64ac:	e8 16       	cp	r14, r24
    64ae:	f1 04       	cpc	r15, r1
    64b0:	01 05       	cpc	r16, r1
    64b2:	11 05       	cpc	r17, r1
    64b4:	21 f4       	brne	.+8      	; 0x64be <Test+0xfe>
    64b6:	80 e0       	ldi	r24, 0x00	; 0
    64b8:	90 e0       	ldi	r25, 0x00	; 0
    64ba:	0e 94 b7 2e 	call	0x5d6e <LCD_WR_DATA16>
    64be:	08 94       	sec
    64c0:	a1 08       	sbc	r10, r1
    64c2:	b1 08       	sbc	r11, r1
    64c4:	c1 08       	sbc	r12, r1
    64c6:	d1 08       	sbc	r13, r1
    64c8:	d7 fe       	sbrs	r13, 7
    64ca:	b4 cf       	rjmp	.-152    	; 0x6434 <Test+0x74>
                }    
                 delay_ms(100);                   
    64cc:	84 e6       	ldi	r24, 0x64	; 100
    64ce:	90 e0       	ldi	r25, 0x00	; 0
    64d0:	0e 94 a3 2e 	call	0x5d46 <delay_ms>
    64d4:	08 94       	sec
    64d6:	e1 1c       	adc	r14, r1
    64d8:	f1 1c       	adc	r15, r1
    64da:	01 1d       	adc	r16, r1
    64dc:	11 1d       	adc	r17, r1
    64de:	87 e0       	ldi	r24, 0x07	; 7
    64e0:	e8 16       	cp	r14, r24
    64e2:	f1 04       	cpc	r15, r1
    64e4:	01 05       	cpc	r16, r1
    64e6:	11 05       	cpc	r17, r1
    64e8:	08 f4       	brcc	.+2      	; 0x64ec <Test+0x12c>
    64ea:	81 cf       	rjmp	.-254    	; 0x63ee <Test+0x2e>
    64ec:	1f 91       	pop	r17
    64ee:	0f 91       	pop	r16
    64f0:	ff 90       	pop	r15
    64f2:	ef 90       	pop	r14
    64f4:	df 90       	pop	r13
    64f6:	cf 90       	pop	r12
    64f8:	bf 90       	pop	r11
    64fa:	af 90       	pop	r10
    64fc:	08 95       	ret

000064fe <Init_INT0>:
volatile unsigned char val1=0;

void Init_INT0(void)
{
	SREG |= 0x80 ;//
    64fe:	8f b7       	in	r24, 0x3f	; 63
    6500:	80 68       	ori	r24, 0x80	; 128
    6502:	8f bf       	out	0x3f, r24	; 63
	MCUCR |= 0x03 ;//
    6504:	85 b7       	in	r24, 0x35	; 53
    6506:	83 60       	ori	r24, 0x03	; 3
    6508:	85 bf       	out	0x35, r24	; 53
	GICR=(1<<INT0) ;//
    650a:	80 e4       	ldi	r24, 0x40	; 64
    650c:	8b bf       	out	0x3b, r24	; 59
    650e:	08 95       	ret

00006510 <__vector_1>:
	
}


SIGNAL( SIG_INTERRUPT0 )
{
    6510:	1f 92       	push	r1
    6512:	0f 92       	push	r0
    6514:	0f b6       	in	r0, 0x3f	; 63
    6516:	0f 92       	push	r0
    6518:	11 24       	eor	r1, r1
    651a:	2f 93       	push	r18
    651c:	3f 93       	push	r19
    651e:	4f 93       	push	r20
    6520:	5f 93       	push	r21
    6522:	6f 93       	push	r22
    6524:	7f 93       	push	r23
    6526:	8f 93       	push	r24
    6528:	9f 93       	push	r25
    652a:	af 93       	push	r26
    652c:	bf 93       	push	r27
    652e:	ef 93       	push	r30
    6530:	ff 93       	push	r31
	cli();
    6532:	f8 94       	cli
	
   // if(val1)
	//{
	// val1=0;
	 DISEN_EXCLK;//CLKWRTFT WR	
    6534:	c0 98       	cbi	0x18, 0	; 24
	 DISEN_245;//TFT	
    6536:	97 9a       	sbi	0x12, 7	; 18
     DATA_OUPUT();//TFT
    6538:	8f ef       	ldi	r24, 0xFF	; 255
    653a:	84 bb       	out	0x14, r24	; 20
	 LCD_WR_REG(0x0020,0);//
    653c:	60 e0       	ldi	r22, 0x00	; 0
    653e:	70 e0       	ldi	r23, 0x00	; 0
    6540:	80 e2       	ldi	r24, 0x20	; 32
    6542:	90 e0       	ldi	r25, 0x00	; 0
    6544:	0e 94 f7 2e 	call	0x5dee <LCD_WR_REG>
	 LCD_WR_REG(0x0021,0);//
    6548:	60 e0       	ldi	r22, 0x00	; 0
    654a:	70 e0       	ldi	r23, 0x00	; 0
    654c:	81 e2       	ldi	r24, 0x21	; 33
    654e:	90 e0       	ldi	r25, 0x00	; 0
    6550:	0e 94 f7 2e 	call	0x5dee <LCD_WR_REG>
	 LCD_WR_REG(0x0050,0x00);// GRAM
    6554:	60 e0       	ldi	r22, 0x00	; 0
    6556:	70 e0       	ldi	r23, 0x00	; 0
    6558:	80 e5       	ldi	r24, 0x50	; 80
    655a:	90 e0       	ldi	r25, 0x00	; 0
    655c:	0e 94 f7 2e 	call	0x5dee <LCD_WR_REG>
	 LCD_WR_REG(0x0051,239);//GRAM
    6560:	6f ee       	ldi	r22, 0xEF	; 239
    6562:	70 e0       	ldi	r23, 0x00	; 0
    6564:	81 e5       	ldi	r24, 0x51	; 81
    6566:	90 e0       	ldi	r25, 0x00	; 0
    6568:	0e 94 f7 2e 	call	0x5dee <LCD_WR_REG>
	 LCD_WR_REG(0x0052,0x00);//GRAM
    656c:	60 e0       	ldi	r22, 0x00	; 0
    656e:	70 e0       	ldi	r23, 0x00	; 0
    6570:	82 e5       	ldi	r24, 0x52	; 82
    6572:	90 e0       	ldi	r25, 0x00	; 0
    6574:	0e 94 f7 2e 	call	0x5dee <LCD_WR_REG>
	 LCD_WR_REG(0x0053,319);//GRAM 
    6578:	6f e3       	ldi	r22, 0x3F	; 63
    657a:	71 e0       	ldi	r23, 0x01	; 1
    657c:	83 e5       	ldi	r24, 0x53	; 83
    657e:	90 e0       	ldi	r25, 0x00	; 0
    6580:	0e 94 f7 2e 	call	0x5dee <LCD_WR_REG>
	 LCD_WR_REG(0x0003,0x1028); 
    6584:	68 e2       	ldi	r22, 0x28	; 40
    6586:	70 e1       	ldi	r23, 0x10	; 16
    6588:	83 e0       	ldi	r24, 0x03	; 3
    658a:	90 e0       	ldi	r25, 0x00	; 0
    658c:	0e 94 f7 2e 	call	0x5dee <LCD_WR_REG>
	 LCD_WR_REG16(0x0022);
    6590:	82 e2       	ldi	r24, 0x22	; 34
    6592:	90 e0       	ldi	r25, 0x00	; 0
    6594:	0e 94 d5 2e 	call	0x5daa <LCD_WR_REG16>
	 
     LCD_CS_L();//
    6598:	de 98       	cbi	0x1b, 6	; 27
	 DATA_INPUT();//TFT	
    659a:	14 ba       	out	0x14, r1	; 20
	 LCD_RS_H();//
    659c:	df 9a       	sbi	0x1b, 7	; 27
	 LCD_WR_L();//
    659e:	c3 9a       	sbi	0x18, 3	; 24
	 EN_EXCLK;//CLK
    65a0:	c0 9a       	sbi	0x18, 0	; 24
	 EN_245;//TFT	
    65a2:	97 98       	cbi	0x12, 7	; 18
	/* }
	 else 
	 {
	 val1=1;
	 DISEN_EXCLK;//CLKWRTFT WR	
	 DISEN_245;//TFT	
     DATA_OUPUT();//TFT
	 LCD_WR_REG(0x0003,0x1018);
	 //LCD_write_english_string(20,206,"Guanfu_Wang 2010-01-01",RED,BLACK);
	 LCD_write_english_string(100,222,"OV7670 Demo Rev3.0",RED,BLACK);
	 
	 }
	 */
	 sei();
    65a4:	78 94       	sei
    65a6:	ff 91       	pop	r31
    65a8:	ef 91       	pop	r30
    65aa:	bf 91       	pop	r27
    65ac:	af 91       	pop	r26
    65ae:	9f 91       	pop	r25
    65b0:	8f 91       	pop	r24
    65b2:	7f 91       	pop	r23
    65b4:	6f 91       	pop	r22
    65b6:	5f 91       	pop	r21
    65b8:	4f 91       	pop	r20
    65ba:	3f 91       	pop	r19
    65bc:	2f 91       	pop	r18
    65be:	0f 90       	pop	r0
    65c0:	0f be       	out	0x3f, r0	; 63
    65c2:	0f 90       	pop	r0
    65c4:	1f 90       	pop	r1
    65c6:	18 95       	reti

000065c8 <main>:


//CPU//
int main(void) 
{
    65c8:	cf e5       	ldi	r28, 0x5F	; 95
    65ca:	d8 e0       	ldi	r29, 0x08	; 8
    65cc:	de bf       	out	0x3e, r29	; 62
    65ce:	cd bf       	out	0x3d, r28	; 61

	EXCLK_DDR|=1<<EXCLK_BIT ;//en_exclk 
    65d0:	b8 9a       	sbi	0x17, 0	; 23
	HC245_OE_DDR|=1<<HC245_OE_BIT;//en_245
    65d2:	8f 9a       	sbi	0x11, 7	; 17
	
	DISEN_EXCLK;//CLKWRTFT WR	
    65d4:	c0 98       	cbi	0x18, 0	; 24
	DISEN_245;//TFT
    65d6:	97 9a       	sbi	0x12, 7	; 18
	
	DATA_OUPUT(); //TFT
    65d8:	8f ef       	ldi	r24, 0xFF	; 255
    65da:	84 bb       	out	0x14, r24	; 20
    LCD_Init();
    65dc:	0e 94 45 2f 	call	0x5e8a <LCD_Init>
	//Test();
	//Test_tu();
	Test_tu();
    65e0:	0e 94 9b 31 	call	0x6336 <Test_tu>
	delay_ms(3000);
    65e4:	88 eb       	ldi	r24, 0xB8	; 184
    65e6:	9b e0       	ldi	r25, 0x0B	; 11
    65e8:	0e 94 a3 2e 	call	0x5d46 <delay_ms>
	LCD_write_english_string(20,150,"Guanfu_Wang  2010-02-24",RED,BLACK);
    65ec:	00 e0       	ldi	r16, 0x00	; 0
    65ee:	10 e0       	ldi	r17, 0x00	; 0
    65f0:	20 e0       	ldi	r18, 0x00	; 0
    65f2:	38 ef       	ldi	r19, 0xF8	; 248
    65f4:	40 e6       	ldi	r20, 0x60	; 96
    65f6:	50 e0       	ldi	r21, 0x00	; 0
    65f8:	66 e9       	ldi	r22, 0x96	; 150
    65fa:	70 e0       	ldi	r23, 0x00	; 0
    65fc:	84 e1       	ldi	r24, 0x14	; 20
    65fe:	90 e0       	ldi	r25, 0x00	; 0
    6600:	0e 94 69 31 	call	0x62d2 <LCD_write_english_string>
	LCD_write_english_string(20,170,"Atmega32 & ILI9331 FOR OV7670 REV3.0",GREEN,BLACK);
    6604:	20 ee       	ldi	r18, 0xE0	; 224
    6606:	37 e0       	ldi	r19, 0x07	; 7
    6608:	48 e7       	ldi	r20, 0x78	; 120
    660a:	50 e0       	ldi	r21, 0x00	; 0
    660c:	6a ea       	ldi	r22, 0xAA	; 170
    660e:	70 e0       	ldi	r23, 0x00	; 0
    6610:	84 e1       	ldi	r24, 0x14	; 20
    6612:	90 e0       	ldi	r25, 0x00	; 0
    6614:	0e 94 69 31 	call	0x62d2 <LCD_write_english_string>
	
	LCD_write_english_string(20,190,"OV7670 Init......",BLUE,BLACK);
    6618:	2f e1       	ldi	r18, 0x1F	; 31
    661a:	30 e0       	ldi	r19, 0x00	; 0
    661c:	4d e9       	ldi	r20, 0x9D	; 157
    661e:	50 e0       	ldi	r21, 0x00	; 0
    6620:	6e eb       	ldi	r22, 0xBE	; 190
    6622:	70 e0       	ldi	r23, 0x00	; 0
    6624:	84 e1       	ldi	r24, 0x14	; 20
    6626:	90 e0       	ldi	r25, 0x00	; 0
    6628:	0e 94 69 31 	call	0x62d2 <LCD_write_english_string>
	
	while(1!=OV7670_init());//ov7660
    662c:	0e 94 68 2e 	call	0x5cd0 <OV7670_init>
    6630:	81 30       	cpi	r24, 0x01	; 1
    6632:	e1 f7       	brne	.-8      	; 0x662c <main+0x64>
	delay_ms(1000);
    6634:	88 ee       	ldi	r24, 0xE8	; 232
    6636:	93 e0       	ldi	r25, 0x03	; 3
    6638:	0e 94 a3 2e 	call	0x5d46 <delay_ms>
	LCD_write_english_string(20,190,"OV7670 Init  0K  ",RED,BLACK);
    663c:	00 e0       	ldi	r16, 0x00	; 0
    663e:	10 e0       	ldi	r17, 0x00	; 0
    6640:	20 e0       	ldi	r18, 0x00	; 0
    6642:	38 ef       	ldi	r19, 0xF8	; 248
    6644:	4f ea       	ldi	r20, 0xAF	; 175
    6646:	50 e0       	ldi	r21, 0x00	; 0
    6648:	6e eb       	ldi	r22, 0xBE	; 190
    664a:	70 e0       	ldi	r23, 0x00	; 0
    664c:	84 e1       	ldi	r24, 0x14	; 20
    664e:	90 e0       	ldi	r25, 0x00	; 0
    6650:	0e 94 69 31 	call	0x62d2 <LCD_write_english_string>
	delay_ms(1000);
    6654:	88 ee       	ldi	r24, 0xE8	; 232
    6656:	93 e0       	ldi	r25, 0x03	; 3
    6658:	0e 94 a3 2e 	call	0x5d46 <delay_ms>
	LCD_Clear(0);
    665c:	c8 01       	movw	r24, r16
    665e:	0e 94 02 2f 	call	0x5e04 <LCD_Clear>
    DATA_INPUT(); 
    6662:	14 ba       	out	0x14, r1	; 20
	Init_INT0();
    6664:	0e 94 7f 32 	call	0x64fe <Init_INT0>
	/**/
    while(1)
    6668:	ff cf       	rjmp	.-2      	; 0x6668 <main+0xa0>
