   1               		.file	"int.c"
   2               		.arch atmega32
   3               	__SREG__ = 0x3f
   4               	__SP_H__ = 0x3e
   5               	__SP_L__ = 0x3d
   6               	__tmp_reg__ = 0
   7               	__zero_reg__ = 1
   8               		.global __do_copy_data
   9               		.global __do_clear_bss
  17               	.Ltext0:
  18               	.global	val1
  19               	.global	val1
  20               		.section .bss
  23               	val1:
  24 0000 00        		.skip 1,0
  25               	.global	english
  26               		.section	.progmem.data,"a",@progbits
  29               	english:
  30 0000 00        		.byte	0
  31 0001 00        		.byte	0
  32 0002 00        		.byte	0
  33 0003 00        		.byte	0
  34 0004 00        		.byte	0
  35 0005 00        		.byte	0
  36 0006 00        		.byte	0
  37 0007 00        		.byte	0
  38 0008 00        		.byte	0
  39 0009 00        		.byte	0
  40 000a 00        		.byte	0
  41 000b 00        		.byte	0
  42 000c 00        		.byte	0
  43 000d 00        		.byte	0
  44 000e 00        		.byte	0
  45 000f 00        		.byte	0
  46 0010 00        		.byte	0
  47 0011 00        		.byte	0
  48 0012 00        		.byte	0
  49 0013 00        		.byte	0
  50 0014 18        		.byte	24
  51 0015 3C        		.byte	60
  52 0016 3C        		.byte	60
  53 0017 3C        		.byte	60
  54 0018 18        		.byte	24
  55 0019 18        		.byte	24
  56 001a 00        		.byte	0
  57 001b 18        		.byte	24
  58 001c 18        		.byte	24
  59 001d 00        		.byte	0
  60 001e 00        		.byte	0
  61 001f 00        		.byte	0
  62 0020 00        		.byte	0
  63 0021 00        		.byte	0
  64 0022 00        		.byte	0
  65 0023 00        		.byte	0
  66 0024 66        		.byte	102
  67 0025 66        		.byte	102
  68 0026 66        		.byte	102
  69 0027 00        		.byte	0
  70 0028 00        		.byte	0
  71 0029 00        		.byte	0
  72 002a 00        		.byte	0
  73 002b 00        		.byte	0
  74 002c 00        		.byte	0
  75 002d 00        		.byte	0
  76 002e 00        		.byte	0
  77 002f 00        		.byte	0
  78 0030 00        		.byte	0
  79 0031 00        		.byte	0
  80 0032 00        		.byte	0
  81 0033 00        		.byte	0
  82 0034 36        		.byte	54
  83 0035 36        		.byte	54
  84 0036 7F        		.byte	127
  85 0037 36        		.byte	54
  86 0038 36        		.byte	54
  87 0039 36        		.byte	54
  88 003a 7F        		.byte	127
  89 003b 36        		.byte	54
  90 003c 36        		.byte	54
  91 003d 00        		.byte	0
  92 003e 00        		.byte	0
  93 003f 00        		.byte	0
  94 0040 00        		.byte	0
  95 0041 00        		.byte	0
  96 0042 18        		.byte	24
  97 0043 18        		.byte	24
  98 0044 3C        		.byte	60
  99 0045 66        		.byte	102
 100 0046 60        		.byte	96
 101 0047 30        		.byte	48
 102 0048 18        		.byte	24
 103 0049 0C        		.byte	12
 104 004a 06        		.byte	6
 105 004b 66        		.byte	102
 106 004c 3C        		.byte	60
 107 004d 18        		.byte	24
 108 004e 18        		.byte	24
 109 004f 00        		.byte	0
 110 0050 00        		.byte	0
 111 0051 00        		.byte	0
 112 0052 00        		.byte	0
 113 0053 70        		.byte	112
 114 0054 D8        		.byte	-40
 115 0055 DA        		.byte	-38
 116 0056 76        		.byte	118
 117 0057 0C        		.byte	12
 118 0058 18        		.byte	24
 119 0059 30        		.byte	48
 120 005a 6E        		.byte	110
 121 005b 5B        		.byte	91
 122 005c 1B        		.byte	27
 123 005d 0E        		.byte	14
 124 005e 00        		.byte	0
 125 005f 00        		.byte	0
 126 0060 00        		.byte	0
 127 0061 00        		.byte	0
 128 0062 00        		.byte	0
 129 0063 00        		.byte	0
 130 0064 38        		.byte	56
 131 0065 6C        		.byte	108
 132 0066 6C        		.byte	108
 133 0067 38        		.byte	56
 134 0068 60        		.byte	96
 135 0069 6F        		.byte	111
 136 006a 66        		.byte	102
 137 006b 66        		.byte	102
 138 006c 3B        		.byte	59
 139 006d 00        		.byte	0
 140 006e 00        		.byte	0
 141 006f 00        		.byte	0
 142 0070 00        		.byte	0
 143 0071 00        		.byte	0
 144 0072 00        		.byte	0
 145 0073 00        		.byte	0
 146 0074 18        		.byte	24
 147 0075 18        		.byte	24
 148 0076 18        		.byte	24
 149 0077 00        		.byte	0
 150 0078 00        		.byte	0
 151 0079 00        		.byte	0
 152 007a 00        		.byte	0
 153 007b 00        		.byte	0
 154 007c 00        		.byte	0
 155 007d 00        		.byte	0
 156 007e 00        		.byte	0
 157 007f 00        		.byte	0
 158 0080 00        		.byte	0
 159 0081 00        		.byte	0
 160 0082 00        		.byte	0
 161 0083 00        		.byte	0
 162 0084 0C        		.byte	12
 163 0085 18        		.byte	24
 164 0086 18        		.byte	24
 165 0087 30        		.byte	48
 166 0088 30        		.byte	48
 167 0089 30        		.byte	48
 168 008a 30        		.byte	48
 169 008b 30        		.byte	48
 170 008c 18        		.byte	24
 171 008d 18        		.byte	24
 172 008e 0C        		.byte	12
 173 008f 00        		.byte	0
 174 0090 00        		.byte	0
 175 0091 00        		.byte	0
 176 0092 00        		.byte	0
 177 0093 00        		.byte	0
 178 0094 30        		.byte	48
 179 0095 18        		.byte	24
 180 0096 18        		.byte	24
 181 0097 0C        		.byte	12
 182 0098 0C        		.byte	12
 183 0099 0C        		.byte	12
 184 009a 0C        		.byte	12
 185 009b 0C        		.byte	12
 186 009c 18        		.byte	24
 187 009d 18        		.byte	24
 188 009e 30        		.byte	48
 189 009f 00        		.byte	0
 190 00a0 00        		.byte	0
 191 00a1 00        		.byte	0
 192 00a2 00        		.byte	0
 193 00a3 00        		.byte	0
 194 00a4 00        		.byte	0
 195 00a5 00        		.byte	0
 196 00a6 36        		.byte	54
 197 00a7 1C        		.byte	28
 198 00a8 7F        		.byte	127
 199 00a9 1C        		.byte	28
 200 00aa 36        		.byte	54
 201 00ab 00        		.byte	0
 202 00ac 00        		.byte	0
 203 00ad 00        		.byte	0
 204 00ae 00        		.byte	0
 205 00af 00        		.byte	0
 206 00b0 00        		.byte	0
 207 00b1 00        		.byte	0
 208 00b2 00        		.byte	0
 209 00b3 00        		.byte	0
 210 00b4 00        		.byte	0
 211 00b5 00        		.byte	0
 212 00b6 18        		.byte	24
 213 00b7 18        		.byte	24
 214 00b8 7E        		.byte	126
 215 00b9 18        		.byte	24
 216 00ba 18        		.byte	24
 217 00bb 00        		.byte	0
 218 00bc 00        		.byte	0
 219 00bd 00        		.byte	0
 220 00be 00        		.byte	0
 221 00bf 00        		.byte	0
 222 00c0 00        		.byte	0
 223 00c1 00        		.byte	0
 224 00c2 00        		.byte	0
 225 00c3 00        		.byte	0
 226 00c4 00        		.byte	0
 227 00c5 00        		.byte	0
 228 00c6 00        		.byte	0
 229 00c7 00        		.byte	0
 230 00c8 00        		.byte	0
 231 00c9 00        		.byte	0
 232 00ca 1C        		.byte	28
 233 00cb 1C        		.byte	28
 234 00cc 0C        		.byte	12
 235 00cd 18        		.byte	24
 236 00ce 00        		.byte	0
 237 00cf 00        		.byte	0
 238 00d0 00        		.byte	0
 239 00d1 00        		.byte	0
 240 00d2 00        		.byte	0
 241 00d3 00        		.byte	0
 242 00d4 00        		.byte	0
 243 00d5 00        		.byte	0
 244 00d6 00        		.byte	0
 245 00d7 7E        		.byte	126
 246 00d8 00        		.byte	0
 247 00d9 00        		.byte	0
 248 00da 00        		.byte	0
 249 00db 00        		.byte	0
 250 00dc 00        		.byte	0
 251 00dd 00        		.byte	0
 252 00de 00        		.byte	0
 253 00df 00        		.byte	0
 254 00e0 00        		.byte	0
 255 00e1 00        		.byte	0
 256 00e2 00        		.byte	0
 257 00e3 00        		.byte	0
 258 00e4 00        		.byte	0
 259 00e5 00        		.byte	0
 260 00e6 00        		.byte	0
 261 00e7 00        		.byte	0
 262 00e8 00        		.byte	0
 263 00e9 00        		.byte	0
 264 00ea 1C        		.byte	28
 265 00eb 1C        		.byte	28
 266 00ec 00        		.byte	0
 267 00ed 00        		.byte	0
 268 00ee 00        		.byte	0
 269 00ef 00        		.byte	0
 270 00f0 00        		.byte	0
 271 00f1 00        		.byte	0
 272 00f2 00        		.byte	0
 273 00f3 06        		.byte	6
 274 00f4 06        		.byte	6
 275 00f5 0C        		.byte	12
 276 00f6 0C        		.byte	12
 277 00f7 18        		.byte	24
 278 00f8 18        		.byte	24
 279 00f9 30        		.byte	48
 280 00fa 30        		.byte	48
 281 00fb 60        		.byte	96
 282 00fc 60        		.byte	96
 283 00fd 00        		.byte	0
 284 00fe 00        		.byte	0
 285 00ff 00        		.byte	0
 286 0100 00        		.byte	0
 287 0101 00        		.byte	0
 288 0102 00        		.byte	0
 289 0103 1E        		.byte	30
 290 0104 33        		.byte	51
 291 0105 37        		.byte	55
 292 0106 37        		.byte	55
 293 0107 33        		.byte	51
 294 0108 3B        		.byte	59
 295 0109 3B        		.byte	59
 296 010a 33        		.byte	51
 297 010b 1E        		.byte	30
 298 010c 00        		.byte	0
 299 010d 00        		.byte	0
 300 010e 00        		.byte	0
 301 010f 00        		.byte	0
 302 0110 00        		.byte	0
 303 0111 00        		.byte	0
 304 0112 00        		.byte	0
 305 0113 0C        		.byte	12
 306 0114 1C        		.byte	28
 307 0115 7C        		.byte	124
 308 0116 0C        		.byte	12
 309 0117 0C        		.byte	12
 310 0118 0C        		.byte	12
 311 0119 0C        		.byte	12
 312 011a 0C        		.byte	12
 313 011b 0C        		.byte	12
 314 011c 00        		.byte	0
 315 011d 00        		.byte	0
 316 011e 00        		.byte	0
 317 011f 00        		.byte	0
 318 0120 00        		.byte	0
 319 0121 00        		.byte	0
 320 0122 00        		.byte	0
 321 0123 3C        		.byte	60
 322 0124 66        		.byte	102
 323 0125 66        		.byte	102
 324 0126 06        		.byte	6
 325 0127 0C        		.byte	12
 326 0128 18        		.byte	24
 327 0129 30        		.byte	48
 328 012a 60        		.byte	96
 329 012b 7E        		.byte	126
 330 012c 00        		.byte	0
 331 012d 00        		.byte	0
 332 012e 00        		.byte	0
 333 012f 00        		.byte	0
 334 0130 00        		.byte	0
 335 0131 00        		.byte	0
 336 0132 00        		.byte	0
 337 0133 3C        		.byte	60
 338 0134 66        		.byte	102
 339 0135 66        		.byte	102
 340 0136 06        		.byte	6
 341 0137 1C        		.byte	28
 342 0138 06        		.byte	6
 343 0139 66        		.byte	102
 344 013a 66        		.byte	102
 345 013b 3C        		.byte	60
 346 013c 00        		.byte	0
 347 013d 00        		.byte	0
 348 013e 00        		.byte	0
 349 013f 00        		.byte	0
 350 0140 00        		.byte	0
 351 0141 00        		.byte	0
 352 0142 00        		.byte	0
 353 0143 30        		.byte	48
 354 0144 30        		.byte	48
 355 0145 36        		.byte	54
 356 0146 36        		.byte	54
 357 0147 36        		.byte	54
 358 0148 66        		.byte	102
 359 0149 7F        		.byte	127
 360 014a 06        		.byte	6
 361 014b 06        		.byte	6
 362 014c 00        		.byte	0
 363 014d 00        		.byte	0
 364 014e 00        		.byte	0
 365 014f 00        		.byte	0
 366 0150 00        		.byte	0
 367 0151 00        		.byte	0
 368 0152 00        		.byte	0
 369 0153 7E        		.byte	126
 370 0154 60        		.byte	96
 371 0155 60        		.byte	96
 372 0156 60        		.byte	96
 373 0157 7C        		.byte	124
 374 0158 06        		.byte	6
 375 0159 06        		.byte	6
 376 015a 0C        		.byte	12
 377 015b 78        		.byte	120
 378 015c 00        		.byte	0
 379 015d 00        		.byte	0
 380 015e 00        		.byte	0
 381 015f 00        		.byte	0
 382 0160 00        		.byte	0
 383 0161 00        		.byte	0
 384 0162 00        		.byte	0
 385 0163 1C        		.byte	28
 386 0164 18        		.byte	24
 387 0165 30        		.byte	48
 388 0166 7C        		.byte	124
 389 0167 66        		.byte	102
 390 0168 66        		.byte	102
 391 0169 66        		.byte	102
 392 016a 66        		.byte	102
 393 016b 3C        		.byte	60
 394 016c 00        		.byte	0
 395 016d 00        		.byte	0
 396 016e 00        		.byte	0
 397 016f 00        		.byte	0
 398 0170 00        		.byte	0
 399 0171 00        		.byte	0
 400 0172 00        		.byte	0
 401 0173 7E        		.byte	126
 402 0174 06        		.byte	6
 403 0175 0C        		.byte	12
 404 0176 0C        		.byte	12
 405 0177 18        		.byte	24
 406 0178 18        		.byte	24
 407 0179 30        		.byte	48
 408 017a 30        		.byte	48
 409 017b 30        		.byte	48
 410 017c 00        		.byte	0
 411 017d 00        		.byte	0
 412 017e 00        		.byte	0
 413 017f 00        		.byte	0
 414 0180 00        		.byte	0
 415 0181 00        		.byte	0
 416 0182 00        		.byte	0
 417 0183 3C        		.byte	60
 418 0184 66        		.byte	102
 419 0185 66        		.byte	102
 420 0186 76        		.byte	118
 421 0187 3C        		.byte	60
 422 0188 6E        		.byte	110
 423 0189 66        		.byte	102
 424 018a 66        		.byte	102
 425 018b 3C        		.byte	60
 426 018c 00        		.byte	0
 427 018d 00        		.byte	0
 428 018e 00        		.byte	0
 429 018f 00        		.byte	0
 430 0190 00        		.byte	0
 431 0191 00        		.byte	0
 432 0192 00        		.byte	0
 433 0193 3C        		.byte	60
 434 0194 66        		.byte	102
 435 0195 66        		.byte	102
 436 0196 66        		.byte	102
 437 0197 66        		.byte	102
 438 0198 3E        		.byte	62
 439 0199 0C        		.byte	12
 440 019a 18        		.byte	24
 441 019b 38        		.byte	56
 442 019c 00        		.byte	0
 443 019d 00        		.byte	0
 444 019e 00        		.byte	0
 445 019f 00        		.byte	0
 446 01a0 00        		.byte	0
 447 01a1 00        		.byte	0
 448 01a2 00        		.byte	0
 449 01a3 00        		.byte	0
 450 01a4 00        		.byte	0
 451 01a5 1C        		.byte	28
 452 01a6 1C        		.byte	28
 453 01a7 00        		.byte	0
 454 01a8 00        		.byte	0
 455 01a9 00        		.byte	0
 456 01aa 1C        		.byte	28
 457 01ab 1C        		.byte	28
 458 01ac 00        		.byte	0
 459 01ad 00        		.byte	0
 460 01ae 00        		.byte	0
 461 01af 00        		.byte	0
 462 01b0 00        		.byte	0
 463 01b1 00        		.byte	0
 464 01b2 00        		.byte	0
 465 01b3 00        		.byte	0
 466 01b4 00        		.byte	0
 467 01b5 1C        		.byte	28
 468 01b6 1C        		.byte	28
 469 01b7 00        		.byte	0
 470 01b8 00        		.byte	0
 471 01b9 00        		.byte	0
 472 01ba 1C        		.byte	28
 473 01bb 1C        		.byte	28
 474 01bc 0C        		.byte	12
 475 01bd 18        		.byte	24
 476 01be 00        		.byte	0
 477 01bf 00        		.byte	0
 478 01c0 00        		.byte	0
 479 01c1 00        		.byte	0
 480 01c2 00        		.byte	0
 481 01c3 06        		.byte	6
 482 01c4 0C        		.byte	12
 483 01c5 18        		.byte	24
 484 01c6 30        		.byte	48
 485 01c7 60        		.byte	96
 486 01c8 30        		.byte	48
 487 01c9 18        		.byte	24
 488 01ca 0C        		.byte	12
 489 01cb 06        		.byte	6
 490 01cc 00        		.byte	0
 491 01cd 00        		.byte	0
 492 01ce 00        		.byte	0
 493 01cf 00        		.byte	0
 494 01d0 00        		.byte	0
 495 01d1 00        		.byte	0
 496 01d2 00        		.byte	0
 497 01d3 00        		.byte	0
 498 01d4 00        		.byte	0
 499 01d5 00        		.byte	0
 500 01d6 7E        		.byte	126
 501 01d7 00        		.byte	0
 502 01d8 7E        		.byte	126
 503 01d9 00        		.byte	0
 504 01da 00        		.byte	0
 505 01db 00        		.byte	0
 506 01dc 00        		.byte	0
 507 01dd 00        		.byte	0
 508 01de 00        		.byte	0
 509 01df 00        		.byte	0
 510 01e0 00        		.byte	0
 511 01e1 00        		.byte	0
 512 01e2 00        		.byte	0
 513 01e3 60        		.byte	96
 514 01e4 30        		.byte	48
 515 01e5 18        		.byte	24
 516 01e6 0C        		.byte	12
 517 01e7 06        		.byte	6
 518 01e8 0C        		.byte	12
 519 01e9 18        		.byte	24
 520 01ea 30        		.byte	48
 521 01eb 60        		.byte	96
 522 01ec 00        		.byte	0
 523 01ed 00        		.byte	0
 524 01ee 00        		.byte	0
 525 01ef 00        		.byte	0
 526 01f0 00        		.byte	0
 527 01f1 00        		.byte	0
 528 01f2 00        		.byte	0
 529 01f3 3C        		.byte	60
 530 01f4 66        		.byte	102
 531 01f5 66        		.byte	102
 532 01f6 0C        		.byte	12
 533 01f7 18        		.byte	24
 534 01f8 18        		.byte	24
 535 01f9 00        		.byte	0
 536 01fa 18        		.byte	24
 537 01fb 18        		.byte	24
 538 01fc 00        		.byte	0
 539 01fd 00        		.byte	0
 540 01fe 00        		.byte	0
 541 01ff 00        		.byte	0
 542 0200 00        		.byte	0
 543 0201 00        		.byte	0
 544 0202 00        		.byte	0
 545 0203 7E        		.byte	126
 546 0204 C3        		.byte	-61
 547 0205 C3        		.byte	-61
 548 0206 CF        		.byte	-49
 549 0207 DB        		.byte	-37
 550 0208 DB        		.byte	-37
 551 0209 CF        		.byte	-49
 552 020a C0        		.byte	-64
 553 020b 7F        		.byte	127
 554 020c 00        		.byte	0
 555 020d 00        		.byte	0
 556 020e 00        		.byte	0
 557 020f 00        		.byte	0
 558 0210 00        		.byte	0
 559 0211 00        		.byte	0
 560 0212 00        		.byte	0
 561 0213 18        		.byte	24
 562 0214 3C        		.byte	60
 563 0215 66        		.byte	102
 564 0216 66        		.byte	102
 565 0217 66        		.byte	102
 566 0218 7E        		.byte	126
 567 0219 66        		.byte	102
 568 021a 66        		.byte	102
 569 021b 66        		.byte	102
 570 021c 00        		.byte	0
 571 021d 00        		.byte	0
 572 021e 00        		.byte	0
 573 021f 00        		.byte	0
 574 0220 00        		.byte	0
 575 0221 00        		.byte	0
 576 0222 00        		.byte	0
 577 0223 7C        		.byte	124
 578 0224 66        		.byte	102
 579 0225 66        		.byte	102
 580 0226 66        		.byte	102
 581 0227 7C        		.byte	124
 582 0228 66        		.byte	102
 583 0229 66        		.byte	102
 584 022a 66        		.byte	102
 585 022b 7C        		.byte	124
 586 022c 00        		.byte	0
 587 022d 00        		.byte	0
 588 022e 00        		.byte	0
 589 022f 00        		.byte	0
 590 0230 00        		.byte	0
 591 0231 00        		.byte	0
 592 0232 00        		.byte	0
 593 0233 3C        		.byte	60
 594 0234 66        		.byte	102
 595 0235 66        		.byte	102
 596 0236 60        		.byte	96
 597 0237 60        		.byte	96
 598 0238 60        		.byte	96
 599 0239 66        		.byte	102
 600 023a 66        		.byte	102
 601 023b 3C        		.byte	60
 602 023c 00        		.byte	0
 603 023d 00        		.byte	0
 604 023e 00        		.byte	0
 605 023f 00        		.byte	0
 606 0240 00        		.byte	0
 607 0241 00        		.byte	0
 608 0242 00        		.byte	0
 609 0243 78        		.byte	120
 610 0244 6C        		.byte	108
 611 0245 66        		.byte	102
 612 0246 66        		.byte	102
 613 0247 66        		.byte	102
 614 0248 66        		.byte	102
 615 0249 66        		.byte	102
 616 024a 6C        		.byte	108
 617 024b 78        		.byte	120
 618 024c 00        		.byte	0
 619 024d 00        		.byte	0
 620 024e 00        		.byte	0
 621 024f 00        		.byte	0
 622 0250 00        		.byte	0
 623 0251 00        		.byte	0
 624 0252 00        		.byte	0
 625 0253 7E        		.byte	126
 626 0254 60        		.byte	96
 627 0255 60        		.byte	96
 628 0256 60        		.byte	96
 629 0257 7C        		.byte	124
 630 0258 60        		.byte	96
 631 0259 60        		.byte	96
 632 025a 60        		.byte	96
 633 025b 7E        		.byte	126
 634 025c 00        		.byte	0
 635 025d 00        		.byte	0
 636 025e 00        		.byte	0
 637 025f 00        		.byte	0
 638 0260 00        		.byte	0
 639 0261 00        		.byte	0
 640 0262 00        		.byte	0
 641 0263 7E        		.byte	126
 642 0264 60        		.byte	96
 643 0265 60        		.byte	96
 644 0266 60        		.byte	96
 645 0267 7C        		.byte	124
 646 0268 60        		.byte	96
 647 0269 60        		.byte	96
 648 026a 60        		.byte	96
 649 026b 60        		.byte	96
 650 026c 00        		.byte	0
 651 026d 00        		.byte	0
 652 026e 00        		.byte	0
 653 026f 00        		.byte	0
 654 0270 00        		.byte	0
 655 0271 00        		.byte	0
 656 0272 00        		.byte	0
 657 0273 3C        		.byte	60
 658 0274 66        		.byte	102
 659 0275 66        		.byte	102
 660 0276 60        		.byte	96
 661 0277 60        		.byte	96
 662 0278 6E        		.byte	110
 663 0279 66        		.byte	102
 664 027a 66        		.byte	102
 665 027b 3E        		.byte	62
 666 027c 00        		.byte	0
 667 027d 00        		.byte	0
 668 027e 00        		.byte	0
 669 027f 00        		.byte	0
 670 0280 00        		.byte	0
 671 0281 00        		.byte	0
 672 0282 00        		.byte	0
 673 0283 66        		.byte	102
 674 0284 66        		.byte	102
 675 0285 66        		.byte	102
 676 0286 66        		.byte	102
 677 0287 7E        		.byte	126
 678 0288 66        		.byte	102
 679 0289 66        		.byte	102
 680 028a 66        		.byte	102
 681 028b 66        		.byte	102
 682 028c 00        		.byte	0
 683 028d 00        		.byte	0
 684 028e 00        		.byte	0
 685 028f 00        		.byte	0
 686 0290 00        		.byte	0
 687 0291 00        		.byte	0
 688 0292 00        		.byte	0
 689 0293 3C        		.byte	60
 690 0294 18        		.byte	24
 691 0295 18        		.byte	24
 692 0296 18        		.byte	24
 693 0297 18        		.byte	24
 694 0298 18        		.byte	24
 695 0299 18        		.byte	24
 696 029a 18        		.byte	24
 697 029b 3C        		.byte	60
 698 029c 00        		.byte	0
 699 029d 00        		.byte	0
 700 029e 00        		.byte	0
 701 029f 00        		.byte	0
 702 02a0 00        		.byte	0
 703 02a1 00        		.byte	0
 704 02a2 1E        		.byte	30
 705 02a3 0C        		.byte	12
 706 02a4 0C        		.byte	12
 707 02a5 0C        		.byte	12
 708 02a6 0C        		.byte	12
 709 02a7 0C        		.byte	12
 710 02a8 CC        		.byte	-52
 711 02a9 CC        		.byte	-52
 712 02aa CC        		.byte	-52
 713 02ab 78        		.byte	120
 714 02ac 00        		.byte	0
 715 02ad 00        		.byte	0
 716 02ae 00        		.byte	0
 717 02af 00        		.byte	0
 718 02b0 00        		.byte	0
 719 02b1 00        		.byte	0
 720 02b2 00        		.byte	0
 721 02b3 66        		.byte	102
 722 02b4 66        		.byte	102
 723 02b5 6C        		.byte	108
 724 02b6 6C        		.byte	108
 725 02b7 78        		.byte	120
 726 02b8 6C        		.byte	108
 727 02b9 6C        		.byte	108
 728 02ba 66        		.byte	102
 729 02bb 66        		.byte	102
 730 02bc 00        		.byte	0
 731 02bd 00        		.byte	0
 732 02be 00        		.byte	0
 733 02bf 00        		.byte	0
 734 02c0 00        		.byte	0
 735 02c1 00        		.byte	0
 736 02c2 00        		.byte	0
 737 02c3 60        		.byte	96
 738 02c4 60        		.byte	96
 739 02c5 60        		.byte	96
 740 02c6 60        		.byte	96
 741 02c7 60        		.byte	96
 742 02c8 60        		.byte	96
 743 02c9 60        		.byte	96
 744 02ca 60        		.byte	96
 745 02cb 7E        		.byte	126
 746 02cc 00        		.byte	0
 747 02cd 00        		.byte	0
 748 02ce 00        		.byte	0
 749 02cf 00        		.byte	0
 750 02d0 00        		.byte	0
 751 02d1 00        		.byte	0
 752 02d2 00        		.byte	0
 753 02d3 63        		.byte	99
 754 02d4 63        		.byte	99
 755 02d5 77        		.byte	119
 756 02d6 6B        		.byte	107
 757 02d7 6B        		.byte	107
 758 02d8 6B        		.byte	107
 759 02d9 63        		.byte	99
 760 02da 63        		.byte	99
 761 02db 63        		.byte	99
 762 02dc 00        		.byte	0
 763 02dd 00        		.byte	0
 764 02de 00        		.byte	0
 765 02df 00        		.byte	0
 766 02e0 00        		.byte	0
 767 02e1 00        		.byte	0
 768 02e2 00        		.byte	0
 769 02e3 63        		.byte	99
 770 02e4 63        		.byte	99
 771 02e5 73        		.byte	115
 772 02e6 7B        		.byte	123
 773 02e7 6F        		.byte	111
 774 02e8 67        		.byte	103
 775 02e9 63        		.byte	99
 776 02ea 63        		.byte	99
 777 02eb 63        		.byte	99
 778 02ec 00        		.byte	0
 779 02ed 00        		.byte	0
 780 02ee 00        		.byte	0
 781 02ef 00        		.byte	0
 782 02f0 00        		.byte	0
 783 02f1 00        		.byte	0
 784 02f2 00        		.byte	0
 785 02f3 3C        		.byte	60
 786 02f4 66        		.byte	102
 787 02f5 66        		.byte	102
 788 02f6 66        		.byte	102
 789 02f7 66        		.byte	102
 790 02f8 66        		.byte	102
 791 02f9 66        		.byte	102
 792 02fa 66        		.byte	102
 793 02fb 3C        		.byte	60
 794 02fc 00        		.byte	0
 795 02fd 00        		.byte	0
 796 02fe 00        		.byte	0
 797 02ff 00        		.byte	0
 798 0300 00        		.byte	0
 799 0301 00        		.byte	0
 800 0302 00        		.byte	0
 801 0303 7C        		.byte	124
 802 0304 66        		.byte	102
 803 0305 66        		.byte	102
 804 0306 66        		.byte	102
 805 0307 7C        		.byte	124
 806 0308 60        		.byte	96
 807 0309 60        		.byte	96
 808 030a 60        		.byte	96
 809 030b 60        		.byte	96
 810 030c 00        		.byte	0
 811 030d 00        		.byte	0
 812 030e 00        		.byte	0
 813 030f 00        		.byte	0
 814 0310 00        		.byte	0
 815 0311 00        		.byte	0
 816 0312 00        		.byte	0
 817 0313 3C        		.byte	60
 818 0314 66        		.byte	102
 819 0315 66        		.byte	102
 820 0316 66        		.byte	102
 821 0317 66        		.byte	102
 822 0318 66        		.byte	102
 823 0319 66        		.byte	102
 824 031a 66        		.byte	102
 825 031b 3C        		.byte	60
 826 031c 0C        		.byte	12
 827 031d 06        		.byte	6
 828 031e 00        		.byte	0
 829 031f 00        		.byte	0
 830 0320 00        		.byte	0
 831 0321 00        		.byte	0
 832 0322 00        		.byte	0
 833 0323 7C        		.byte	124
 834 0324 66        		.byte	102
 835 0325 66        		.byte	102
 836 0326 66        		.byte	102
 837 0327 7C        		.byte	124
 838 0328 6C        		.byte	108
 839 0329 66        		.byte	102
 840 032a 66        		.byte	102
 841 032b 66        		.byte	102
 842 032c 00        		.byte	0
 843 032d 00        		.byte	0
 844 032e 00        		.byte	0
 845 032f 00        		.byte	0
 846 0330 00        		.byte	0
 847 0331 00        		.byte	0
 848 0332 00        		.byte	0
 849 0333 3C        		.byte	60
 850 0334 66        		.byte	102
 851 0335 60        		.byte	96
 852 0336 30        		.byte	48
 853 0337 18        		.byte	24
 854 0338 0C        		.byte	12
 855 0339 06        		.byte	6
 856 033a 66        		.byte	102
 857 033b 3C        		.byte	60
 858 033c 00        		.byte	0
 859 033d 00        		.byte	0
 860 033e 00        		.byte	0
 861 033f 00        		.byte	0
 862 0340 00        		.byte	0
 863 0341 00        		.byte	0
 864 0342 00        		.byte	0
 865 0343 7E        		.byte	126
 866 0344 18        		.byte	24
 867 0345 18        		.byte	24
 868 0346 18        		.byte	24
 869 0347 18        		.byte	24
 870 0348 18        		.byte	24
 871 0349 18        		.byte	24
 872 034a 18        		.byte	24
 873 034b 18        		.byte	24
 874 034c 00        		.byte	0
 875 034d 00        		.byte	0
 876 034e 00        		.byte	0
 877 034f 00        		.byte	0
 878 0350 00        		.byte	0
 879 0351 00        		.byte	0
 880 0352 00        		.byte	0
 881 0353 66        		.byte	102
 882 0354 66        		.byte	102
 883 0355 66        		.byte	102
 884 0356 66        		.byte	102
 885 0357 66        		.byte	102
 886 0358 66        		.byte	102
 887 0359 66        		.byte	102
 888 035a 66        		.byte	102
 889 035b 3C        		.byte	60
 890 035c 00        		.byte	0
 891 035d 00        		.byte	0
 892 035e 00        		.byte	0
 893 035f 00        		.byte	0
 894 0360 00        		.byte	0
 895 0361 00        		.byte	0
 896 0362 00        		.byte	0
 897 0363 66        		.byte	102
 898 0364 66        		.byte	102
 899 0365 66        		.byte	102
 900 0366 66        		.byte	102
 901 0367 66        		.byte	102
 902 0368 66        		.byte	102
 903 0369 66        		.byte	102
 904 036a 3C        		.byte	60
 905 036b 18        		.byte	24
 906 036c 00        		.byte	0
 907 036d 00        		.byte	0
 908 036e 00        		.byte	0
 909 036f 00        		.byte	0
 910 0370 00        		.byte	0
 911 0371 00        		.byte	0
 912 0372 00        		.byte	0
 913 0373 63        		.byte	99
 914 0374 63        		.byte	99
 915 0375 63        		.byte	99
 916 0376 6B        		.byte	107
 917 0377 6B        		.byte	107
 918 0378 6B        		.byte	107
 919 0379 36        		.byte	54
 920 037a 36        		.byte	54
 921 037b 36        		.byte	54
 922 037c 00        		.byte	0
 923 037d 00        		.byte	0
 924 037e 00        		.byte	0
 925 037f 00        		.byte	0
 926 0380 00        		.byte	0
 927 0381 00        		.byte	0
 928 0382 00        		.byte	0
 929 0383 66        		.byte	102
 930 0384 66        		.byte	102
 931 0385 34        		.byte	52
 932 0386 18        		.byte	24
 933 0387 18        		.byte	24
 934 0388 2C        		.byte	44
 935 0389 66        		.byte	102
 936 038a 66        		.byte	102
 937 038b 66        		.byte	102
 938 038c 00        		.byte	0
 939 038d 00        		.byte	0
 940 038e 00        		.byte	0
 941 038f 00        		.byte	0
 942 0390 00        		.byte	0
 943 0391 00        		.byte	0
 944 0392 00        		.byte	0
 945 0393 66        		.byte	102
 946 0394 66        		.byte	102
 947 0395 66        		.byte	102
 948 0396 66        		.byte	102
 949 0397 3C        		.byte	60
 950 0398 18        		.byte	24
 951 0399 18        		.byte	24
 952 039a 18        		.byte	24
 953 039b 18        		.byte	24
 954 039c 00        		.byte	0
 955 039d 00        		.byte	0
 956 039e 00        		.byte	0
 957 039f 00        		.byte	0
 958 03a0 00        		.byte	0
 959 03a1 00        		.byte	0
 960 03a2 00        		.byte	0
 961 03a3 7E        		.byte	126
 962 03a4 06        		.byte	6
 963 03a5 06        		.byte	6
 964 03a6 0C        		.byte	12
 965 03a7 18        		.byte	24
 966 03a8 30        		.byte	48
 967 03a9 60        		.byte	96
 968 03aa 60        		.byte	96
 969 03ab 7E        		.byte	126
 970 03ac 00        		.byte	0
 971 03ad 00        		.byte	0
 972 03ae 00        		.byte	0
 973 03af 00        		.byte	0
 974 03b0 00        		.byte	0
 975 03b1 00        		.byte	0
 976 03b2 00        		.byte	0
 977 03b3 3C        		.byte	60
 978 03b4 30        		.byte	48
 979 03b5 30        		.byte	48
 980 03b6 30        		.byte	48
 981 03b7 30        		.byte	48
 982 03b8 30        		.byte	48
 983 03b9 30        		.byte	48
 984 03ba 30        		.byte	48
 985 03bb 30        		.byte	48
 986 03bc 30        		.byte	48
 987 03bd 30        		.byte	48
 988 03be 3C        		.byte	60
 989 03bf 00        		.byte	0
 990 03c0 00        		.byte	0
 991 03c1 00        		.byte	0
 992 03c2 00        		.byte	0
 993 03c3 60        		.byte	96
 994 03c4 60        		.byte	96
 995 03c5 30        		.byte	48
 996 03c6 30        		.byte	48
 997 03c7 18        		.byte	24
 998 03c8 18        		.byte	24
 999 03c9 0C        		.byte	12
 1000 03ca 0C        		.byte	12
 1001 03cb 06        		.byte	6
 1002 03cc 06        		.byte	6
 1003 03cd 00        		.byte	0
 1004 03ce 00        		.byte	0
 1005 03cf 00        		.byte	0
 1006 03d0 00        		.byte	0
 1007 03d1 00        		.byte	0
 1008 03d2 00        		.byte	0
 1009 03d3 3C        		.byte	60
 1010 03d4 0C        		.byte	12
 1011 03d5 0C        		.byte	12
 1012 03d6 0C        		.byte	12
 1013 03d7 0C        		.byte	12
 1014 03d8 0C        		.byte	12
 1015 03d9 0C        		.byte	12
 1016 03da 0C        		.byte	12
 1017 03db 0C        		.byte	12
 1018 03dc 0C        		.byte	12
 1019 03dd 0C        		.byte	12
 1020 03de 3C        		.byte	60
 1021 03df 00        		.byte	0
 1022 03e0 00        		.byte	0
 1023 03e1 18        		.byte	24
 1024 03e2 3C        		.byte	60
 1025 03e3 66        		.byte	102
 1026 03e4 00        		.byte	0
 1027 03e5 00        		.byte	0
 1028 03e6 00        		.byte	0
 1029 03e7 00        		.byte	0
 1030 03e8 00        		.byte	0
 1031 03e9 00        		.byte	0
 1032 03ea 00        		.byte	0
 1033 03eb 00        		.byte	0
 1034 03ec 00        		.byte	0
 1035 03ed 00        		.byte	0
 1036 03ee 00        		.byte	0
 1037 03ef 00        		.byte	0
 1038 03f0 00        		.byte	0
 1039 03f1 00        		.byte	0
 1040 03f2 00        		.byte	0
 1041 03f3 00        		.byte	0
 1042 03f4 00        		.byte	0
 1043 03f5 00        		.byte	0
 1044 03f6 00        		.byte	0
 1045 03f7 00        		.byte	0
 1046 03f8 00        		.byte	0
 1047 03f9 00        		.byte	0
 1048 03fa 00        		.byte	0
 1049 03fb 00        		.byte	0
 1050 03fc 00        		.byte	0
 1051 03fd 00        		.byte	0
 1052 03fe FF        		.byte	-1
 1053 03ff 00        		.byte	0
 1054 0400 00        		.byte	0
 1055 0401 38        		.byte	56
 1056 0402 18        		.byte	24
 1057 0403 0C        		.byte	12
 1058 0404 00        		.byte	0
 1059 0405 00        		.byte	0
 1060 0406 00        		.byte	0
 1061 0407 00        		.byte	0
 1062 0408 00        		.byte	0
 1063 0409 00        		.byte	0
 1064 040a 00        		.byte	0
 1065 040b 00        		.byte	0
 1066 040c 00        		.byte	0
 1067 040d 00        		.byte	0
 1068 040e 00        		.byte	0
 1069 040f 00        		.byte	0
 1070 0410 00        		.byte	0
 1071 0411 00        		.byte	0
 1072 0412 00        		.byte	0
 1073 0413 00        		.byte	0
 1074 0414 00        		.byte	0
 1075 0415 3C        		.byte	60
 1076 0416 06        		.byte	6
 1077 0417 06        		.byte	6
 1078 0418 3E        		.byte	62
 1079 0419 66        		.byte	102
 1080 041a 66        		.byte	102
 1081 041b 3E        		.byte	62
 1082 041c 00        		.byte	0
 1083 041d 00        		.byte	0
 1084 041e 00        		.byte	0
 1085 041f 00        		.byte	0
 1086 0420 00        		.byte	0
 1087 0421 00        		.byte	0
 1088 0422 00        		.byte	0
 1089 0423 60        		.byte	96
 1090 0424 60        		.byte	96
 1091 0425 7C        		.byte	124
 1092 0426 66        		.byte	102
 1093 0427 66        		.byte	102
 1094 0428 66        		.byte	102
 1095 0429 66        		.byte	102
 1096 042a 66        		.byte	102
 1097 042b 7C        		.byte	124
 1098 042c 00        		.byte	0
 1099 042d 00        		.byte	0
 1100 042e 00        		.byte	0
 1101 042f 00        		.byte	0
 1102 0430 00        		.byte	0
 1103 0431 00        		.byte	0
 1104 0432 00        		.byte	0
 1105 0433 00        		.byte	0
 1106 0434 00        		.byte	0
 1107 0435 3C        		.byte	60
 1108 0436 66        		.byte	102
 1109 0437 60        		.byte	96
 1110 0438 60        		.byte	96
 1111 0439 60        		.byte	96
 1112 043a 66        		.byte	102
 1113 043b 3C        		.byte	60
 1114 043c 00        		.byte	0
 1115 043d 00        		.byte	0
 1116 043e 00        		.byte	0
 1117 043f 00        		.byte	0
 1118 0440 00        		.byte	0
 1119 0441 00        		.byte	0
 1120 0442 00        		.byte	0
 1121 0443 06        		.byte	6
 1122 0444 06        		.byte	6
 1123 0445 3E        		.byte	62
 1124 0446 66        		.byte	102
 1125 0447 66        		.byte	102
 1126 0448 66        		.byte	102
 1127 0449 66        		.byte	102
 1128 044a 66        		.byte	102
 1129 044b 3E        		.byte	62
 1130 044c 00        		.byte	0
 1131 044d 00        		.byte	0
 1132 044e 00        		.byte	0
 1133 044f 00        		.byte	0
 1134 0450 00        		.byte	0
 1135 0451 00        		.byte	0
 1136 0452 00        		.byte	0
 1137 0453 00        		.byte	0
 1138 0454 00        		.byte	0
 1139 0455 3C        		.byte	60
 1140 0456 66        		.byte	102
 1141 0457 66        		.byte	102
 1142 0458 7E        		.byte	126
 1143 0459 60        		.byte	96
 1144 045a 60        		.byte	96
 1145 045b 3C        		.byte	60
 1146 045c 00        		.byte	0
 1147 045d 00        		.byte	0
 1148 045e 00        		.byte	0
 1149 045f 00        		.byte	0
 1150 0460 00        		.byte	0
 1151 0461 00        		.byte	0
 1152 0462 00        		.byte	0
 1153 0463 1E        		.byte	30
 1154 0464 30        		.byte	48
 1155 0465 30        		.byte	48
 1156 0466 30        		.byte	48
 1157 0467 7E        		.byte	126
 1158 0468 30        		.byte	48
 1159 0469 30        		.byte	48
 1160 046a 30        		.byte	48
 1161 046b 30        		.byte	48
 1162 046c 00        		.byte	0
 1163 046d 00        		.byte	0
 1164 046e 00        		.byte	0
 1165 046f 00        		.byte	0
 1166 0470 00        		.byte	0
 1167 0471 00        		.byte	0
 1168 0472 00        		.byte	0
 1169 0473 00        		.byte	0
 1170 0474 00        		.byte	0
 1171 0475 3E        		.byte	62
 1172 0476 66        		.byte	102
 1173 0477 66        		.byte	102
 1174 0478 66        		.byte	102
 1175 0479 66        		.byte	102
 1176 047a 66        		.byte	102
 1177 047b 3E        		.byte	62
 1178 047c 06        		.byte	6
 1179 047d 06        		.byte	6
 1180 047e 7C        		.byte	124
 1181 047f 00        		.byte	0
 1182 0480 00        		.byte	0
 1183 0481 00        		.byte	0
 1184 0482 00        		.byte	0
 1185 0483 60        		.byte	96
 1186 0484 60        		.byte	96
 1187 0485 7C        		.byte	124
 1188 0486 66        		.byte	102
 1189 0487 66        		.byte	102
 1190 0488 66        		.byte	102
 1191 0489 66        		.byte	102
 1192 048a 66        		.byte	102
 1193 048b 66        		.byte	102
 1194 048c 00        		.byte	0
 1195 048d 00        		.byte	0
 1196 048e 00        		.byte	0
 1197 048f 00        		.byte	0
 1198 0490 00        		.byte	0
 1199 0491 00        		.byte	0
 1200 0492 18        		.byte	24
 1201 0493 18        		.byte	24
 1202 0494 00        		.byte	0
 1203 0495 78        		.byte	120
 1204 0496 18        		.byte	24
 1205 0497 18        		.byte	24
 1206 0498 18        		.byte	24
 1207 0499 18        		.byte	24
 1208 049a 18        		.byte	24
 1209 049b 7E        		.byte	126
 1210 049c 00        		.byte	0
 1211 049d 00        		.byte	0
 1212 049e 00        		.byte	0
 1213 049f 00        		.byte	0
 1214 04a0 00        		.byte	0
 1215 04a1 00        		.byte	0
 1216 04a2 0C        		.byte	12
 1217 04a3 0C        		.byte	12
 1218 04a4 00        		.byte	0
 1219 04a5 3C        		.byte	60
 1220 04a6 0C        		.byte	12
 1221 04a7 0C        		.byte	12
 1222 04a8 0C        		.byte	12
 1223 04a9 0C        		.byte	12
 1224 04aa 0C        		.byte	12
 1225 04ab 0C        		.byte	12
 1226 04ac 0C        		.byte	12
 1227 04ad 0C        		.byte	12
 1228 04ae 78        		.byte	120
 1229 04af 00        		.byte	0
 1230 04b0 00        		.byte	0
 1231 04b1 00        		.byte	0
 1232 04b2 00        		.byte	0
 1233 04b3 60        		.byte	96
 1234 04b4 60        		.byte	96
 1235 04b5 66        		.byte	102
 1236 04b6 66        		.byte	102
 1237 04b7 6C        		.byte	108
 1238 04b8 78        		.byte	120
 1239 04b9 6C        		.byte	108
 1240 04ba 66        		.byte	102
 1241 04bb 66        		.byte	102
 1242 04bc 00        		.byte	0
 1243 04bd 00        		.byte	0
 1244 04be 00        		.byte	0
 1245 04bf 00        		.byte	0
 1246 04c0 00        		.byte	0
 1247 04c1 00        		.byte	0
 1248 04c2 00        		.byte	0
 1249 04c3 78        		.byte	120
 1250 04c4 18        		.byte	24
 1251 04c5 18        		.byte	24
 1252 04c6 18        		.byte	24
 1253 04c7 18        		.byte	24
 1254 04c8 18        		.byte	24
 1255 04c9 18        		.byte	24
 1256 04ca 18        		.byte	24
 1257 04cb 7E        		.byte	126
 1258 04cc 00        		.byte	0
 1259 04cd 00        		.byte	0
 1260 04ce 00        		.byte	0
 1261 04cf 00        		.byte	0
 1262 04d0 00        		.byte	0
 1263 04d1 00        		.byte	0
 1264 04d2 00        		.byte	0
 1265 04d3 00        		.byte	0
 1266 04d4 00        		.byte	0
 1267 04d5 7E        		.byte	126
 1268 04d6 6B        		.byte	107
 1269 04d7 6B        		.byte	107
 1270 04d8 6B        		.byte	107
 1271 04d9 6B        		.byte	107
 1272 04da 6B        		.byte	107
 1273 04db 63        		.byte	99
 1274 04dc 00        		.byte	0
 1275 04dd 00        		.byte	0
 1276 04de 00        		.byte	0
 1277 04df 00        		.byte	0
 1278 04e0 00        		.byte	0
 1279 04e1 00        		.byte	0
 1280 04e2 00        		.byte	0
 1281 04e3 00        		.byte	0
 1282 04e4 00        		.byte	0
 1283 04e5 7C        		.byte	124
 1284 04e6 66        		.byte	102
 1285 04e7 66        		.byte	102
 1286 04e8 66        		.byte	102
 1287 04e9 66        		.byte	102
 1288 04ea 66        		.byte	102
 1289 04eb 66        		.byte	102
 1290 04ec 00        		.byte	0
 1291 04ed 00        		.byte	0
 1292 04ee 00        		.byte	0
 1293 04ef 00        		.byte	0
 1294 04f0 00        		.byte	0
 1295 04f1 00        		.byte	0
 1296 04f2 00        		.byte	0
 1297 04f3 00        		.byte	0
 1298 04f4 00        		.byte	0
 1299 04f5 3C        		.byte	60
 1300 04f6 66        		.byte	102
 1301 04f7 66        		.byte	102
 1302 04f8 66        		.byte	102
 1303 04f9 66        		.byte	102
 1304 04fa 66        		.byte	102
 1305 04fb 3C        		.byte	60
 1306 04fc 00        		.byte	0
 1307 04fd 00        		.byte	0
 1308 04fe 00        		.byte	0
 1309 04ff 00        		.byte	0
 1310 0500 00        		.byte	0
 1311 0501 00        		.byte	0
 1312 0502 00        		.byte	0
 1313 0503 00        		.byte	0
 1314 0504 00        		.byte	0
 1315 0505 7C        		.byte	124
 1316 0506 66        		.byte	102
 1317 0507 66        		.byte	102
 1318 0508 66        		.byte	102
 1319 0509 66        		.byte	102
 1320 050a 66        		.byte	102
 1321 050b 7C        		.byte	124
 1322 050c 60        		.byte	96
 1323 050d 60        		.byte	96
 1324 050e 60        		.byte	96
 1325 050f 00        		.byte	0
 1326 0510 00        		.byte	0
 1327 0511 00        		.byte	0
 1328 0512 00        		.byte	0
 1329 0513 00        		.byte	0
 1330 0514 00        		.byte	0
 1331 0515 3E        		.byte	62
 1332 0516 66        		.byte	102
 1333 0517 66        		.byte	102
 1334 0518 66        		.byte	102
 1335 0519 66        		.byte	102
 1336 051a 66        		.byte	102
 1337 051b 3E        		.byte	62
 1338 051c 06        		.byte	6
 1339 051d 06        		.byte	6
 1340 051e 06        		.byte	6
 1341 051f 00        		.byte	0
 1342 0520 00        		.byte	0
 1343 0521 00        		.byte	0
 1344 0522 00        		.byte	0
 1345 0523 00        		.byte	0
 1346 0524 00        		.byte	0
 1347 0525 66        		.byte	102
 1348 0526 6E        		.byte	110
 1349 0527 70        		.byte	112
 1350 0528 60        		.byte	96
 1351 0529 60        		.byte	96
 1352 052a 60        		.byte	96
 1353 052b 60        		.byte	96
 1354 052c 00        		.byte	0
 1355 052d 00        		.byte	0
 1356 052e 00        		.byte	0
 1357 052f 00        		.byte	0
 1358 0530 00        		.byte	0
 1359 0531 00        		.byte	0
 1360 0532 00        		.byte	0
 1361 0533 00        		.byte	0
 1362 0534 00        		.byte	0
 1363 0535 3E        		.byte	62
 1364 0536 60        		.byte	96
 1365 0537 60        		.byte	96
 1366 0538 3C        		.byte	60
 1367 0539 06        		.byte	6
 1368 053a 06        		.byte	6
 1369 053b 7C        		.byte	124
 1370 053c 00        		.byte	0
 1371 053d 00        		.byte	0
 1372 053e 00        		.byte	0
 1373 053f 00        		.byte	0
 1374 0540 00        		.byte	0
 1375 0541 00        		.byte	0
 1376 0542 00        		.byte	0
 1377 0543 30        		.byte	48
 1378 0544 30        		.byte	48
 1379 0545 7E        		.byte	126
 1380 0546 30        		.byte	48
 1381 0547 30        		.byte	48
 1382 0548 30        		.byte	48
 1383 0549 30        		.byte	48
 1384 054a 30        		.byte	48
 1385 054b 1E        		.byte	30
 1386 054c 00        		.byte	0
 1387 054d 00        		.byte	0
 1388 054e 00        		.byte	0
 1389 054f 00        		.byte	0
 1390 0550 00        		.byte	0
 1391 0551 00        		.byte	0
 1392 0552 00        		.byte	0
 1393 0553 00        		.byte	0
 1394 0554 00        		.byte	0
 1395 0555 66        		.byte	102
 1396 0556 66        		.byte	102
 1397 0557 66        		.byte	102
 1398 0558 66        		.byte	102
 1399 0559 66        		.byte	102
 1400 055a 66        		.byte	102
 1401 055b 3E        		.byte	62
 1402 055c 00        		.byte	0
 1403 055d 00        		.byte	0
 1404 055e 00        		.byte	0
 1405 055f 00        		.byte	0
 1406 0560 00        		.byte	0
 1407 0561 00        		.byte	0
 1408 0562 00        		.byte	0
 1409 0563 00        		.byte	0
 1410 0564 00        		.byte	0
 1411 0565 66        		.byte	102
 1412 0566 66        		.byte	102
 1413 0567 66        		.byte	102
 1414 0568 66        		.byte	102
 1415 0569 66        		.byte	102
 1416 056a 3C        		.byte	60
 1417 056b 18        		.byte	24
 1418 056c 00        		.byte	0
 1419 056d 00        		.byte	0
 1420 056e 00        		.byte	0
 1421 056f 00        		.byte	0
 1422 0570 00        		.byte	0
 1423 0571 00        		.byte	0
 1424 0572 00        		.byte	0
 1425 0573 00        		.byte	0
 1426 0574 00        		.byte	0
 1427 0575 63        		.byte	99
 1428 0576 6B        		.byte	107
 1429 0577 6B        		.byte	107
 1430 0578 6B        		.byte	107
 1431 0579 6B        		.byte	107
 1432 057a 36        		.byte	54
 1433 057b 36        		.byte	54
 1434 057c 00        		.byte	0
 1435 057d 00        		.byte	0
 1436 057e 00        		.byte	0
 1437 057f 00        		.byte	0
 1438 0580 00        		.byte	0
 1439 0581 00        		.byte	0
 1440 0582 00        		.byte	0
 1441 0583 00        		.byte	0
 1442 0584 00        		.byte	0
 1443 0585 66        		.byte	102
 1444 0586 66        		.byte	102
 1445 0587 3C        		.byte	60
 1446 0588 18        		.byte	24
 1447 0589 3C        		.byte	60
 1448 058a 66        		.byte	102
 1449 058b 66        		.byte	102
 1450 058c 00        		.byte	0
 1451 058d 00        		.byte	0
 1452 058e 00        		.byte	0
 1453 058f 00        		.byte	0
 1454 0590 00        		.byte	0
 1455 0591 00        		.byte	0
 1456 0592 00        		.byte	0
 1457 0593 00        		.byte	0
 1458 0594 00        		.byte	0
 1459 0595 66        		.byte	102
 1460 0596 66        		.byte	102
 1461 0597 66        		.byte	102
 1462 0598 66        		.byte	102
 1463 0599 66        		.byte	102
 1464 059a 66        		.byte	102
 1465 059b 3C        		.byte	60
 1466 059c 0C        		.byte	12
 1467 059d 18        		.byte	24
 1468 059e F0        		.byte	-16
 1469 059f 00        		.byte	0
 1470 05a0 00        		.byte	0
 1471 05a1 00        		.byte	0
 1472 05a2 00        		.byte	0
 1473 05a3 00        		.byte	0
 1474 05a4 00        		.byte	0
 1475 05a5 7E        		.byte	126
 1476 05a6 06        		.byte	6
 1477 05a7 0C        		.byte	12
 1478 05a8 18        		.byte	24
 1479 05a9 30        		.byte	48
 1480 05aa 60        		.byte	96
 1481 05ab 7E        		.byte	126
 1482 05ac 00        		.byte	0
 1483 05ad 00        		.byte	0
 1484 05ae 00        		.byte	0
 1485 05af 00        		.byte	0
 1486 05b0 00        		.byte	0
 1487 05b1 00        		.byte	0
 1488 05b2 00        		.byte	0
 1489 05b3 0C        		.byte	12
 1490 05b4 18        		.byte	24
 1491 05b5 18        		.byte	24
 1492 05b6 18        		.byte	24
 1493 05b7 30        		.byte	48
 1494 05b8 60        		.byte	96
 1495 05b9 30        		.byte	48
 1496 05ba 18        		.byte	24
 1497 05bb 18        		.byte	24
 1498 05bc 18        		.byte	24
 1499 05bd 0C        		.byte	12
 1500 05be 00        		.byte	0
 1501 05bf 00        		.byte	0
 1502 05c0 00        		.byte	0
 1503 05c1 00        		.byte	0
 1504 05c2 00        		.byte	0
 1505 05c3 18        		.byte	24
 1506 05c4 18        		.byte	24
 1507 05c5 18        		.byte	24
 1508 05c6 18        		.byte	24
 1509 05c7 18        		.byte	24
 1510 05c8 18        		.byte	24
 1511 05c9 18        		.byte	24
 1512 05ca 18        		.byte	24
 1513 05cb 18        		.byte	24
 1514 05cc 18        		.byte	24
 1515 05cd 18        		.byte	24
 1516 05ce 18        		.byte	24
 1517 05cf 00        		.byte	0
 1518 05d0 00        		.byte	0
 1519 05d1 00        		.byte	0
 1520 05d2 00        		.byte	0
 1521 05d3 30        		.byte	48
 1522 05d4 18        		.byte	24
 1523 05d5 18        		.byte	24
 1524 05d6 18        		.byte	24
 1525 05d7 0C        		.byte	12
 1526 05d8 06        		.byte	6
 1527 05d9 0C        		.byte	12
 1528 05da 18        		.byte	24
 1529 05db 18        		.byte	24
 1530 05dc 18        		.byte	24
 1531 05dd 30        		.byte	48
 1532 05de 00        		.byte	0
 1533 05df 00        		.byte	0
 1534 05e0 00        		.byte	0
 1535 05e1 00        		.byte	0
 1536 05e2 00        		.byte	0
 1537 05e3 71        		.byte	113
 1538 05e4 DB        		.byte	-37
 1539 05e5 8E        		.byte	-114
 1540 05e6 00        		.byte	0
 1541 05e7 00        		.byte	0
 1542 05e8 00        		.byte	0
 1543 05e9 00        		.byte	0
 1544 05ea 00        		.byte	0
 1545 05eb 00        		.byte	0
 1546 05ec 00        		.byte	0
 1547 05ed 00        		.byte	0
 1548 05ee 00        		.byte	0
 1549 05ef 00        		.byte	0
 1550               		.text
 1551               	.global	delay_us
 1553               	delay_us:
 1554               	.LFB2:
 1555               	.LM1:
 1556               	/* prologue: frame size=0 */
 1557               	/* prologue end (size=0) */
 1558               	.L2:
 1559               	.LM2:
 1560 0000 0197      		sbiw r24,1
 1561 0002 2FEF      		ldi r18,hi8(-1)
 1562 0004 8F3F      		cpi r24,lo8(-1)
 1563 0006 9207      		cpc r25,r18
 1564 0008 D9F7      		brne .L2
 1565               	/* epilogue: frame size=0 */
 1566 000a 0895      		ret
 1567               	/* epilogue end (size=1) */
 1568               	/* function delay_us size 6 (5) */
 1569               	.LFE2:
 1571               	.global	delay_ms
 1573               	delay_ms:
 1574               	.LFB3:
 1575               	.LM3:
 1576               	/* prologue: frame size=0 */
 1577 000c CF93      		push r28
 1578 000e DF93      		push r29
 1579               	/* prologue end (size=2) */
 1580               	.LM4:
 1581 0010 EC01      		movw r28,r24
 1582 0012 2197      		sbiw r28,1
 1583 0014 8FEF      		ldi r24,hi8(-1)
 1584 0016 CF3F      		cpi r28,lo8(-1)
 1585 0018 D807      		cpc r29,r24
 1586 001a 49F0      		breq .L10
 1587               	.L8:
 1588               	.LM5:
 1589 001c 84E6      		ldi r24,lo8(100)
 1590 001e 90E0      		ldi r25,hi8(100)
 1591 0020 0E94 0000 		call delay_us
 1592 0024 2197      		sbiw r28,1
 1593 0026 8FEF      		ldi r24,hi8(-1)
 1594 0028 CF3F      		cpi r28,lo8(-1)
 1595 002a D807      		cpc r29,r24
 1596 002c B9F7      		brne .L8
 1597               	.L10:
 1598               	/* epilogue: frame size=0 */
 1599 002e DF91      		pop r29
 1600 0030 CF91      		pop r28
 1601 0032 0895      		ret
 1602               	/* epilogue end (size=3) */
 1603               	/* function delay_ms size 20 (15) */
 1604               	.LFE3:
 1606               	.global	LCD_WR_DATA16
 1608               	LCD_WR_DATA16:
 1609               	.LFB4:
 1610               	.LM6:
 1611               	/* prologue: frame size=0 */
 1612 0034 0F93      		push r16
 1613 0036 1F93      		push r17
 1614               	/* prologue end (size=2) */
 1615 0038 8C01      		movw r16,r24
 1616               	.LM7:
 1617 003a DF9A      		sbi 59-0x20,7
 1618               	.LM8:
 1619 003c DE9A      		sbi 59-0x20,6
 1620               	.LM9:
 1621 003e DD98      		cbi 59-0x20,5
 1622               	.LM10:
 1623 0040 C39A      		sbi 56-0x20,3
 1624               	.LM11:
 1625 0042 812F      		mov r24,r17
 1626 0044 9927      		clr r25
 1627 0046 85BB      		out 53-0x20,r24
 1628               	.LM12:
 1629 0048 81E0      		ldi r24,lo8(1)
 1630 004a 90E0      		ldi r25,hi8(1)
 1631 004c 0E94 0000 		call delay_us
 1632               	.LM13:
 1633 0050 C398      		cbi 56-0x20,3
 1634               	.LM14:
 1635 0052 C39A      		sbi 56-0x20,3
 1636               	.LM15:
 1637 0054 81E0      		ldi r24,lo8(1)
 1638 0056 90E0      		ldi r25,hi8(1)
 1639 0058 0E94 0000 		call delay_us
 1640               	.LM16:
 1641 005c 05BB      		out 53-0x20,r16
 1642               	.LM17:
 1643 005e 81E0      		ldi r24,lo8(1)
 1644 0060 90E0      		ldi r25,hi8(1)
 1645 0062 0E94 0000 		call delay_us
 1646               	.LM18:
 1647 0066 C398      		cbi 56-0x20,3
 1648               	.LM19:
 1649 0068 DD9A      		sbi 59-0x20,5
 1650               	/* epilogue: frame size=0 */
 1651 006a 1F91      		pop r17
 1652 006c 0F91      		pop r16
 1653 006e 0895      		ret
 1654               	/* epilogue end (size=3) */
 1655               	/* function LCD_WR_DATA16 size 30 (25) */
 1656               	.LFE4:
 1658               	.global	LCD_WR_REG16
 1660               	LCD_WR_REG16:
 1661               	.LFB5:
 1662               	.LM20:
 1663               	/* prologue: frame size=0 */
 1664 0070 0F93      		push r16
 1665 0072 1F93      		push r17
 1666               	/* prologue end (size=2) */
 1667 0074 8C01      		movw r16,r24
 1668               	.LM21:
 1669 0076 DF9A      		sbi 59-0x20,7
 1670               	.LM22:
 1671 0078 DE98      		cbi 59-0x20,6
 1672               	.LM23:
 1673 007a DD98      		cbi 59-0x20,5
 1674               	.LM24:
 1675 007c C39A      		sbi 56-0x20,3
 1676               	.LM25:
 1677 007e 81E0      		ldi r24,lo8(1)
 1678 0080 90E0      		ldi r25,hi8(1)
 1679 0082 0E94 0000 		call delay_us
 1680               	.LM26:
 1681 0086 812F      		mov r24,r17
 1682 0088 9927      		clr r25
 1683 008a 85BB      		out 53-0x20,r24
 1684               	.LM27:
 1685 008c 81E0      		ldi r24,lo8(1)
 1686 008e 90E0      		ldi r25,hi8(1)
 1687 0090 0E94 0000 		call delay_us
 1688               	.LM28:
 1689 0094 C398      		cbi 56-0x20,3
 1690               	.LM29:
 1691 0096 C39A      		sbi 56-0x20,3
 1692               	.LM30:
 1693 0098 81E0      		ldi r24,lo8(1)
 1694 009a 90E0      		ldi r25,hi8(1)
 1695 009c 0E94 0000 		call delay_us
 1696               	.LM31:
 1697 00a0 05BB      		out 53-0x20,r16
 1698               	.LM32:
 1699 00a2 81E0      		ldi r24,lo8(1)
 1700 00a4 90E0      		ldi r25,hi8(1)
 1701 00a6 0E94 0000 		call delay_us
 1702               	.LM33:
 1703 00aa C398      		cbi 56-0x20,3
 1704               	.LM34:
 1705 00ac DD9A      		sbi 59-0x20,5
 1706               	/* epilogue: frame size=0 */
 1707 00ae 1F91      		pop r17
 1708 00b0 0F91      		pop r16
 1709 00b2 0895      		ret
 1710               	/* epilogue end (size=3) */
 1711               	/* function LCD_WR_REG16 size 34 (29) */
 1712               	.LFE5:
 1714               	.global	LCD_WR_REG
 1716               	LCD_WR_REG:
 1717               	.LFB6:
 1718               	.LM35:
 1719               	/* prologue: frame size=0 */
 1720 00b4 0F93      		push r16
 1721 00b6 1F93      		push r17
 1722               	/* prologue end (size=2) */
 1723 00b8 8B01      		movw r16,r22
 1724               	.LM36:
 1725 00ba 0E94 0000 		call LCD_WR_REG16
 1726               	.LM37:
 1727 00be C801      		movw r24,r16
 1728 00c0 0E94 0000 		call LCD_WR_DATA16
 1729               	/* epilogue: frame size=0 */
 1730 00c4 1F91      		pop r17
 1731 00c6 0F91      		pop r16
 1732 00c8 0895      		ret
 1733               	/* epilogue end (size=3) */
 1734               	/* function LCD_WR_REG size 11 (6) */
 1735               	.LFE6:
 1737               	.global	LCD_Clear
 1739               	LCD_Clear:
 1740               	.LFB8:
 1741               	.LM38:
 1742               	/* prologue: frame size=0 */
 1743 00ca CF93      		push r28
 1744 00cc DF93      		push r29
 1745               	/* prologue end (size=2) */
 1746 00ce EC01      		movw r28,r24
 1747               	.LM39:
 1748 00d0 60E0      		ldi r22,lo8(0)
 1749 00d2 70E0      		ldi r23,hi8(0)
 1750 00d4 80E2      		ldi r24,lo8(32)
 1751 00d6 90E0      		ldi r25,hi8(32)
 1752 00d8 0E94 0000 		call LCD_WR_REG
 1753               	.LM40:
 1754 00dc 60E0      		ldi r22,lo8(0)
 1755 00de 70E0      		ldi r23,hi8(0)
 1756 00e0 81E2      		ldi r24,lo8(33)
 1757 00e2 90E0      		ldi r25,hi8(33)
 1758 00e4 0E94 0000 		call LCD_WR_REG
 1759               	.LM41:
 1760 00e8 60E0      		ldi r22,lo8(0)
 1761 00ea 70E0      		ldi r23,hi8(0)
 1762 00ec 80E5      		ldi r24,lo8(80)
 1763 00ee 90E0      		ldi r25,hi8(80)
 1764 00f0 0E94 0000 		call LCD_WR_REG
 1765               	.LM42:
 1766 00f4 6FEE      		ldi r22,lo8(239)
 1767 00f6 70E0      		ldi r23,hi8(239)
 1768 00f8 81E5      		ldi r24,lo8(81)
 1769 00fa 90E0      		ldi r25,hi8(81)
 1770 00fc 0E94 0000 		call LCD_WR_REG
 1771               	.LM43:
 1772 0100 60E0      		ldi r22,lo8(0)
 1773 0102 70E0      		ldi r23,hi8(0)
 1774 0104 82E5      		ldi r24,lo8(82)
 1775 0106 90E0      		ldi r25,hi8(82)
 1776 0108 0E94 0000 		call LCD_WR_REG
 1777               	.LM44:
 1778 010c 6FE3      		ldi r22,lo8(319)
 1779 010e 71E0      		ldi r23,hi8(319)
 1780 0110 83E5      		ldi r24,lo8(83)
 1781 0112 90E0      		ldi r25,hi8(83)
 1782 0114 0E94 0000 		call LCD_WR_REG
 1783               	.LM45:
 1784 0118 82E2      		ldi r24,lo8(34)
 1785 011a 90E0      		ldi r25,hi8(34)
 1786 011c 0E94 0000 		call LCD_WR_REG16
 1787               	.LM46:
 1788 0120 DF9A      		sbi 59-0x20,7
 1789               	.LM47:
 1790 0122 DE9A      		sbi 59-0x20,6
 1791               	.LM48:
 1792 0124 DD98      		cbi 59-0x20,5
 1793 0126 2D2F      		mov r18,r29
 1794 0128 3327      		clr r19
 1795 012a 8FEF      		ldi r24,lo8(76799)
 1796 012c 9BE2      		ldi r25,hi8(76799)
 1797 012e A1E0      		ldi r26,hlo8(76799)
 1798 0130 B0E0      		ldi r27,hhi8(76799)
 1799               	.L18:
 1800               	.LM49:
 1801 0132 C39A      		sbi 56-0x20,3
 1802               	.LM50:
 1803 0134 25BB      		out 53-0x20,r18
 1804               	.LM51:
 1805 0136 C398      		cbi 56-0x20,3
 1806               	.LM52:
 1807 0138 C39A      		sbi 56-0x20,3
 1808               	.LM53:
 1809 013a C5BB      		out 53-0x20,r28
 1810               	.LM54:
 1811 013c C398      		cbi 56-0x20,3
 1812               	.LM55:
 1813 013e 0197      		sbiw r24,1
 1814 0140 A109      		sbc r26,__zero_reg__
 1815 0142 B109      		sbc r27,__zero_reg__
 1816 0144 B7FF      		sbrs r27,7
 1817 0146 F5CF      		rjmp .L18
 1818               	.LM56:
 1819 0148 DD9A      		sbi 59-0x20,5
 1820               	/* epilogue: frame size=0 */
 1821 014a DF91      		pop r29
 1822 014c CF91      		pop r28
 1823 014e 0895      		ret
 1824               	/* epilogue end (size=3) */
 1825               	/* function LCD_Clear size 67 (62) */
 1826               	.LFE8:
 1828               	.global	LCD_Init
 1830               	LCD_Init:
 1831               	.LFB7:
 1832               	.LM57:
 1833               	/* prologue: frame size=0 */
 1834               	/* prologue end (size=0) */
 1835               	.LM58:
 1836 0150 8F9A      		sbi 49-0x20,7
 1837 0152 D59A      		sbi 58-0x20,5
 1838 0154 D69A      		sbi 58-0x20,6
 1839 0156 BB9A      		sbi 55-0x20,3
 1840 0158 D79A      		sbi 58-0x20,7
 1841 015a B99A      		sbi 55-0x20,1
 1842               	.LM59:
 1843 015c C198      		cbi 56-0x20,1
 1844               	.LM60:
 1845 015e 84E6      		ldi r24,lo8(100)
 1846 0160 90E0      		ldi r25,hi8(100)
 1847 0162 0E94 0000 		call delay_ms
 1848               	.LM61:
 1849 0166 C19A      		sbi 56-0x20,1
 1850               	.LM62:
 1851 0168 84E6      		ldi r24,lo8(100)
 1852 016a 90E0      		ldi r25,hi8(100)
 1853 016c 0E94 0000 		call delay_ms
 1854               	.LM63:
 1855 0170 68E0      		ldi r22,lo8(12296)
 1856 0172 70E3      		ldi r23,hi8(12296)
 1857 0174 83EE      		ldi r24,lo8(227)
 1858 0176 90E0      		ldi r25,hi8(227)
 1859 0178 0E94 0000 		call LCD_WR_REG
 1860               	.LM64:
 1861 017c 62E1      		ldi r22,lo8(18)
 1862 017e 70E0      		ldi r23,hi8(18)
 1863 0180 87EE      		ldi r24,lo8(231)
 1864 0182 90E0      		ldi r25,hi8(231)
 1865 0184 0E94 0000 		call LCD_WR_REG
 1866               	.LM65:
 1867 0188 61E3      		ldi r22,lo8(4657)
 1868 018a 72E1      		ldi r23,hi8(4657)
 1869 018c 8FEE      		ldi r24,lo8(239)
 1870 018e 90E0      		ldi r25,hi8(239)
 1871 0190 0E94 0000 		call LCD_WR_REG
 1872               	.LM66:
 1873 0194 61E0      		ldi r22,lo8(1)
 1874 0196 70E0      		ldi r23,hi8(1)
 1875 0198 80E0      		ldi r24,lo8(0)
 1876 019a 90E0      		ldi r25,hi8(0)
 1877 019c 0E94 0000 		call LCD_WR_REG
 1878               	.LM67:
 1879 01a0 60E0      		ldi r22,lo8(0)
 1880 01a2 70E0      		ldi r23,hi8(0)
 1881 01a4 81E0      		ldi r24,lo8(1)
 1882 01a6 90E0      		ldi r25,hi8(1)
 1883 01a8 0E94 0000 		call LCD_WR_REG
 1884               	.LM68:
 1885 01ac 60E0      		ldi r22,lo8(1792)
 1886 01ae 77E0      		ldi r23,hi8(1792)
 1887 01b0 82E0      		ldi r24,lo8(2)
 1888 01b2 90E0      		ldi r25,hi8(2)
 1889 01b4 0E94 0000 		call LCD_WR_REG
 1890               	.LM69:
 1891 01b8 68E1      		ldi r22,lo8(4120)
 1892 01ba 70E1      		ldi r23,hi8(4120)
 1893 01bc 83E0      		ldi r24,lo8(3)
 1894 01be 90E0      		ldi r25,hi8(3)
 1895 01c0 0E94 0000 		call LCD_WR_REG
 1896               	.LM70:
 1897 01c4 60E0      		ldi r22,lo8(0)
 1898 01c6 70E0      		ldi r23,hi8(0)
 1899 01c8 84E0      		ldi r24,lo8(4)
 1900 01ca 90E0      		ldi r25,hi8(4)
 1901 01cc 0E94 0000 		call LCD_WR_REG
 1902               	.LM71:
 1903 01d0 62E0      		ldi r22,lo8(514)
 1904 01d2 72E0      		ldi r23,hi8(514)
 1905 01d4 88E0      		ldi r24,lo8(8)
 1906 01d6 90E0      		ldi r25,hi8(8)
 1907 01d8 0E94 0000 		call LCD_WR_REG
 1908               	.LM72:
 1909 01dc 60E0      		ldi r22,lo8(0)
 1910 01de 70E0      		ldi r23,hi8(0)
 1911 01e0 89E0      		ldi r24,lo8(9)
 1912 01e2 90E0      		ldi r25,hi8(9)
 1913 01e4 0E94 0000 		call LCD_WR_REG
 1914               	.LM73:
 1915 01e8 60E0      		ldi r22,lo8(0)
 1916 01ea 70E0      		ldi r23,hi8(0)
 1917 01ec 8AE0      		ldi r24,lo8(10)
 1918 01ee 90E0      		ldi r25,hi8(10)
 1919 01f0 0E94 0000 		call LCD_WR_REG
 1920               	.LM74:
 1921 01f4 60E8      		ldi r22,lo8(128)
 1922 01f6 70E0      		ldi r23,hi8(128)
 1923 01f8 80E1      		ldi r24,lo8(16)
 1924 01fa 90E0      		ldi r25,hi8(16)
 1925 01fc 0E94 0000 		call LCD_WR_REG
 1926               	.LM75:
 1927 0200 67E0      		ldi r22,lo8(7)
 1928 0202 70E0      		ldi r23,hi8(7)
 1929 0204 81E1      		ldi r24,lo8(17)
 1930 0206 90E0      		ldi r25,hi8(17)
 1931 0208 0E94 0000 		call LCD_WR_REG
 1932               	.LM76:
 1933 020c 60E0      		ldi r22,lo8(0)
 1934 020e 70E0      		ldi r23,hi8(0)
 1935 0210 82E1      		ldi r24,lo8(18)
 1936 0212 90E0      		ldi r25,hi8(18)
 1937 0214 0E94 0000 		call LCD_WR_REG
 1938               	.LM77:
 1939 0218 60E0      		ldi r22,lo8(0)
 1940 021a 70E0      		ldi r23,hi8(0)
 1941 021c 83E1      		ldi r24,lo8(19)
 1942 021e 90E0      		ldi r25,hi8(19)
 1943 0220 0E94 0000 		call LCD_WR_REG
 1944               	.LM78:
 1945 0224 61E0      		ldi r22,lo8(1)
 1946 0226 70E0      		ldi r23,hi8(1)
 1947 0228 87E0      		ldi r24,lo8(7)
 1948 022a 90E0      		ldi r25,hi8(7)
 1949 022c 0E94 0000 		call LCD_WR_REG
 1950               	.LM79:
 1951 0230 80ED      		ldi r24,lo8(2000)
 1952 0232 97E0      		ldi r25,hi8(2000)
 1953 0234 0E94 0000 		call delay_ms
 1954               	.LM80:
 1955 0238 60E9      		ldi r22,lo8(4752)
 1956 023a 72E1      		ldi r23,hi8(4752)
 1957 023c 80E1      		ldi r24,lo8(16)
 1958 023e 90E0      		ldi r25,hi8(16)
 1959 0240 0E94 0000 		call LCD_WR_REG
 1960               	.LM81:
 1961 0244 67E2      		ldi r22,lo8(1319)
 1962 0246 75E0      		ldi r23,hi8(1319)
 1963 0248 81E1      		ldi r24,lo8(17)
 1964 024a 90E0      		ldi r25,hi8(17)
 1965 024c 0E94 0000 		call LCD_WR_REG
 1966               	.LM82:
 1967 0250 88EE      		ldi r24,lo8(1000)
 1968 0252 93E0      		ldi r25,hi8(1000)
 1969 0254 0E94 0000 		call delay_ms
 1970               	.LM83:
 1971 0258 66E1      		ldi r22,lo8(22)
 1972 025a 70E0      		ldi r23,hi8(22)
 1973 025c 82E1      		ldi r24,lo8(18)
 1974 025e 90E0      		ldi r25,hi8(18)
 1975 0260 0E94 0000 		call LCD_WR_REG
 1976               	.LM84:
 1977 0264 88EE      		ldi r24,lo8(1000)
 1978 0266 93E0      		ldi r25,hi8(1000)
 1979 0268 0E94 0000 		call delay_ms
 1980               	.LM85:
 1981 026c 60E0      		ldi r22,lo8(4608)
 1982 026e 72E1      		ldi r23,hi8(4608)
 1983 0270 83E1      		ldi r24,lo8(19)
 1984 0272 90E0      		ldi r25,hi8(19)
 1985 0274 0E94 0000 		call LCD_WR_REG
 1986               	.LM86:
 1987 0278 6FE1      		ldi r22,lo8(31)
 1988 027a 70E0      		ldi r23,hi8(31)
 1989 027c 89E2      		ldi r24,lo8(41)
 1990 027e 90E0      		ldi r25,hi8(41)
 1991 0280 0E94 0000 		call LCD_WR_REG
 1992               	.LM87:
 1993 0284 6DE0      		ldi r22,lo8(13)
 1994 0286 70E0      		ldi r23,hi8(13)
 1995 0288 8BE2      		ldi r24,lo8(43)
 1996 028a 90E0      		ldi r25,hi8(43)
 1997 028c 0E94 0000 		call LCD_WR_REG
 1998               	.LM88:
 1999 0290 84EF      		ldi r24,lo8(500)
 2000 0292 91E0      		ldi r25,hi8(500)
 2001 0294 0E94 0000 		call delay_ms
 2002               	.LM89:
 2003 0298 60E0      		ldi r22,lo8(0)
 2004 029a 70E0      		ldi r23,hi8(0)
 2005 029c 80E2      		ldi r24,lo8(32)
 2006 029e 90E0      		ldi r25,hi8(32)
 2007 02a0 0E94 0000 		call LCD_WR_REG
 2008               	.LM90:
 2009 02a4 6FE3      		ldi r22,lo8(319)
 2010 02a6 71E0      		ldi r23,hi8(319)
 2011 02a8 81E2      		ldi r24,lo8(33)
 2012 02aa 90E0      		ldi r25,hi8(33)
 2013 02ac 0E94 0000 		call LCD_WR_REG
 2014               	.LM91:
 2015 02b0 67E0      		ldi r22,lo8(263)
 2016 02b2 71E0      		ldi r23,hi8(263)
 2017 02b4 80E3      		ldi r24,lo8(48)
 2018 02b6 90E0      		ldi r25,hi8(48)
 2019 02b8 0E94 0000 		call LCD_WR_REG
 2020               	.LM92:
 2021 02bc 66E0      		ldi r22,lo8(774)
 2022 02be 73E0      		ldi r23,hi8(774)
 2023 02c0 81E3      		ldi r24,lo8(49)
 2024 02c2 90E0      		ldi r25,hi8(49)
 2025 02c4 0E94 0000 		call LCD_WR_REG
 2026               	.LM93:
 2027 02c8 67E0      		ldi r22,lo8(519)
 2028 02ca 72E0      		ldi r23,hi8(519)
 2029 02cc 82E3      		ldi r24,lo8(50)
 2030 02ce 90E0      		ldi r25,hi8(50)
 2031 02d0 0E94 0000 		call LCD_WR_REG
 2032               	.LM94:
 2033 02d4 66E0      		ldi r22,lo8(518)
 2034 02d6 72E0      		ldi r23,hi8(518)
 2035 02d8 85E3      		ldi r24,lo8(53)
 2036 02da 90E0      		ldi r25,hi8(53)
 2037 02dc 0E94 0000 		call LCD_WR_REG
 2038               	.LM95:
 2039 02e0 68E0      		ldi r22,lo8(1032)
 2040 02e2 74E0      		ldi r23,hi8(1032)
 2041 02e4 86E3      		ldi r24,lo8(54)
 2042 02e6 90E0      		ldi r25,hi8(54)
 2043 02e8 0E94 0000 		call LCD_WR_REG
 2044               	.LM96:
 2045 02ec 66E0      		ldi r22,lo8(262)
 2046 02ee 71E0      		ldi r23,hi8(262)
 2047 02f0 87E3      		ldi r24,lo8(55)
 2048 02f2 90E0      		ldi r25,hi8(55)
 2049 02f4 0E94 0000 		call LCD_WR_REG
 2050               	.LM97:
 2051 02f8 62E0      		ldi r22,lo8(258)
 2052 02fa 71E0      		ldi r23,hi8(258)
 2053 02fc 88E3      		ldi r24,lo8(56)
 2054 02fe 90E0      		ldi r25,hi8(56)
 2055 0300 0E94 0000 		call LCD_WR_REG
 2056               	.LM98:
 2057 0304 67E0      		ldi r22,lo8(519)
 2058 0306 72E0      		ldi r23,hi8(519)
 2059 0308 89E3      		ldi r24,lo8(57)
 2060 030a 90E0      		ldi r25,hi8(57)
 2061 030c 0E94 0000 		call LCD_WR_REG
 2062               	.LM99:
 2063 0310 64E0      		ldi r22,lo8(1284)
 2064 0312 75E0      		ldi r23,hi8(1284)
 2065 0314 8CE3      		ldi r24,lo8(60)
 2066 0316 90E0      		ldi r25,hi8(60)
 2067 0318 0E94 0000 		call LCD_WR_REG
 2068               	.LM100:
 2069 031c 63E0      		ldi r22,lo8(1283)
 2070 031e 75E0      		ldi r23,hi8(1283)
 2071 0320 8DE3      		ldi r24,lo8(61)
 2072 0322 90E0      		ldi r25,hi8(61)
 2073 0324 0E94 0000 		call LCD_WR_REG
 2074               	.LM101:
 2075 0328 60E0      		ldi r22,lo8(0)
 2076 032a 70E0      		ldi r23,hi8(0)
 2077 032c 80E5      		ldi r24,lo8(80)
 2078 032e 90E0      		ldi r25,hi8(80)
 2079 0330 0E94 0000 		call LCD_WR_REG
 2080               	.LM102:
 2081 0334 6FEE      		ldi r22,lo8(239)
 2082 0336 70E0      		ldi r23,hi8(239)
 2083 0338 81E5      		ldi r24,lo8(81)
 2084 033a 90E0      		ldi r25,hi8(81)
 2085 033c 0E94 0000 		call LCD_WR_REG
 2086               	.LM103:
 2087 0340 60E0      		ldi r22,lo8(0)
 2088 0342 70E0      		ldi r23,hi8(0)
 2089 0344 82E5      		ldi r24,lo8(82)
 2090 0346 90E0      		ldi r25,hi8(82)
 2091 0348 0E94 0000 		call LCD_WR_REG
 2092               	.LM104:
 2093 034c 6FE3      		ldi r22,lo8(319)
 2094 034e 71E0      		ldi r23,hi8(319)
 2095 0350 83E5      		ldi r24,lo8(83)
 2096 0352 90E0      		ldi r25,hi8(83)
 2097 0354 0E94 0000 		call LCD_WR_REG
 2098               	.LM105:
 2099 0358 60E0      		ldi r22,lo8(9984)
 2100 035a 77E2      		ldi r23,hi8(9984)
 2101 035c 80E6      		ldi r24,lo8(96)
 2102 035e 90E0      		ldi r25,hi8(96)
 2103 0360 0E94 0000 		call LCD_WR_REG
 2104               	.LM106:
 2105 0364 61E0      		ldi r22,lo8(1)
 2106 0366 70E0      		ldi r23,hi8(1)
 2107 0368 81E6      		ldi r24,lo8(97)
 2108 036a 90E0      		ldi r25,hi8(97)
 2109 036c 0E94 0000 		call LCD_WR_REG
 2110               	.LM107:
 2111 0370 60E0      		ldi r22,lo8(0)
 2112 0372 70E0      		ldi r23,hi8(0)
 2113 0374 8AE6      		ldi r24,lo8(106)
 2114 0376 90E0      		ldi r25,hi8(106)
 2115 0378 0E94 0000 		call LCD_WR_REG
 2116               	.LM108:
 2117 037c 60E0      		ldi r22,lo8(0)
 2118 037e 70E0      		ldi r23,hi8(0)
 2119 0380 80E8      		ldi r24,lo8(128)
 2120 0382 90E0      		ldi r25,hi8(128)
 2121 0384 0E94 0000 		call LCD_WR_REG
 2122               	.LM109:
 2123 0388 60E0      		ldi r22,lo8(0)
 2124 038a 70E0      		ldi r23,hi8(0)
 2125 038c 81E8      		ldi r24,lo8(129)
 2126 038e 90E0      		ldi r25,hi8(129)
 2127 0390 0E94 0000 		call LCD_WR_REG
 2128               	.LM110:
 2129 0394 60E0      		ldi r22,lo8(0)
 2130 0396 70E0      		ldi r23,hi8(0)
 2131 0398 82E8      		ldi r24,lo8(130)
 2132 039a 90E0      		ldi r25,hi8(130)
 2133 039c 0E94 0000 		call LCD_WR_REG
 2134               	.LM111:
 2135 03a0 60E0      		ldi r22,lo8(0)
 2136 03a2 70E0      		ldi r23,hi8(0)
 2137 03a4 83E8      		ldi r24,lo8(131)
 2138 03a6 90E0      		ldi r25,hi8(131)
 2139 03a8 0E94 0000 		call LCD_WR_REG
 2140               	.LM112:
 2141 03ac 60E0      		ldi r22,lo8(0)
 2142 03ae 70E0      		ldi r23,hi8(0)
 2143 03b0 84E8      		ldi r24,lo8(132)
 2144 03b2 90E0      		ldi r25,hi8(132)
 2145 03b4 0E94 0000 		call LCD_WR_REG
 2146               	.LM113:
 2147 03b8 60E0      		ldi r22,lo8(0)
 2148 03ba 70E0      		ldi r23,hi8(0)
 2149 03bc 85E8      		ldi r24,lo8(133)
 2150 03be 90E0      		ldi r25,hi8(133)
 2151 03c0 0E94 0000 		call LCD_WR_REG
 2152               	.LM114:
 2153 03c4 60E1      		ldi r22,lo8(16)
 2154 03c6 70E0      		ldi r23,hi8(16)
 2155 03c8 80E9      		ldi r24,lo8(144)
 2156 03ca 90E0      		ldi r25,hi8(144)
 2157 03cc 0E94 0000 		call LCD_WR_REG
 2158               	.LM115:
 2159 03d0 60E0      		ldi r22,lo8(1536)
 2160 03d2 76E0      		ldi r23,hi8(1536)
 2161 03d4 82E9      		ldi r24,lo8(146)
 2162 03d6 90E0      		ldi r25,hi8(146)
 2163 03d8 0E94 0000 		call LCD_WR_REG
 2164               	.LM116:
 2165 03dc 63E0      		ldi r22,lo8(3)
 2166 03de 70E0      		ldi r23,hi8(3)
 2167 03e0 83E9      		ldi r24,lo8(147)
 2168 03e2 90E0      		ldi r25,hi8(147)
 2169 03e4 0E94 0000 		call LCD_WR_REG
 2170               	.LM117:
 2171 03e8 60E1      		ldi r22,lo8(272)
 2172 03ea 71E0      		ldi r23,hi8(272)
 2173 03ec 85E9      		ldi r24,lo8(149)
 2174 03ee 90E0      		ldi r25,hi8(149)
 2175 03f0 0E94 0000 		call LCD_WR_REG
 2176               	.LM118:
 2177 03f4 60E0      		ldi r22,lo8(0)
 2178 03f6 70E0      		ldi r23,hi8(0)
 2179 03f8 87E9      		ldi r24,lo8(151)
 2180 03fa 90E0      		ldi r25,hi8(151)
 2181 03fc 0E94 0000 		call LCD_WR_REG
 2182               	.LM119:
 2183 0400 60E0      		ldi r22,lo8(0)
 2184 0402 70E0      		ldi r23,hi8(0)
 2185 0404 88E9      		ldi r24,lo8(152)
 2186 0406 90E0      		ldi r25,hi8(152)
 2187 0408 0E94 0000 		call LCD_WR_REG
 2188               	.LM120:
 2189 040c 63E7      		ldi r22,lo8(371)
 2190 040e 71E0      		ldi r23,hi8(371)
 2191 0410 87E0      		ldi r24,lo8(7)
 2192 0412 90E0      		ldi r25,hi8(7)
 2193 0414 0E94 0000 		call LCD_WR_REG
 2194               	.LM121:
 2195 0418 80E0      		ldi r24,lo8(0)
 2196 041a 90E0      		ldi r25,hi8(0)
 2197 041c 0E94 0000 		call LCD_Clear
 2198               	.LM122:
 2199 0420 80ED      		ldi r24,lo8(2000)
 2200 0422 97E0      		ldi r25,hi8(2000)
 2201 0424 0E94 0000 		call delay_ms
 2202               	.LM123:
 2203 0428 979A      		sbi 50-0x20,7
 2204               	/* epilogue: frame size=0 */
 2205 042a 0895      		ret
 2206               	/* epilogue end (size=1) */
 2207               	/* function LCD_Init size 366 (365) */
 2208               	.LFE7:
 2210               	.global	LCD_write_english
 2212               	LCD_write_english:
 2213               	.LFB9:
 2214               	.LM124:
 2215               	/* prologue: frame size=0 */
 2216 042c BF92      		push r11
 2217 042e CF92      		push r12
 2218 0430 DF92      		push r13
 2219 0432 EF92      		push r14
 2220 0434 FF92      		push r15
 2221 0436 0F93      		push r16
 2222 0438 1F93      		push r17
 2223 043a CF93      		push r28
 2224               	/* prologue end (size=8) */
 2225 043c B82E      		mov r11,r24
 2226 043e 6B01      		movw r12,r22
 2227 0440 7A01      		movw r14,r20
 2228               	.LM125:
 2229 0442 82E2      		ldi r24,lo8(34)
 2230 0444 90E0      		ldi r25,hi8(34)
 2231 0446 0E94 0000 		call LCD_WR_REG16
 2232               	.LM126:
 2233 044a 00E0      		ldi r16,lo8(0)
 2234               	.L32:
 2235               	.LBB2:
 2236               	.LM127:
 2237 044c EB2D      		mov r30,r11
 2238 044e FF27      		clr r31
 2239 0450 34E0      		ldi r19,4
 2240 0452 EE0F      	1:	lsl r30
 2241 0454 FF1F      		rol r31
 2242 0456 3A95      		dec r19
 2243 0458 E1F7      		brne 1b
 2244 045a E00F      		add r30,r16
 2245 045c F11D      		adc r31,__zero_reg__
 2246 045e E050      		subi r30,lo8(-(english-512))
 2247 0460 F040      		sbci r31,hi8(-(english-512))
 2248               	/* #APP */
 2249 0462 C491      		lpm r28, Z
 2250               		
 2251               	/* #NOAPP */
 2252 0464 17E0      		ldi r17,lo8(7)
 2253               	.L31:
 2254               	.LBE2:
 2255               	.LM128:
 2256 0466 C7FF      		sbrs r28,7
 2257 0468 02C0      		rjmp .L29
 2258 046a C601      		movw r24,r12
 2259 046c 01C0      		rjmp .L37
 2260               	.L29:
 2261               	.LM129:
 2262 046e C701      		movw r24,r14
 2263               	.L37:
 2264 0470 0E94 0000 		call LCD_WR_DATA16
 2265               	.LM130:
 2266 0474 CC0F      		lsl r28
 2267               	.LM131:
 2268 0476 1150      		subi r17,lo8(-(-1))
 2269 0478 17FF      		sbrs r17,7
 2270 047a F5CF      		rjmp .L31
 2271               	.LM132:
 2272 047c 0F5F      		subi r16,lo8(-(1))
 2273 047e 0031      		cpi r16,lo8(16)
 2274 0480 28F3      		brlo .L32
 2275               	/* epilogue: frame size=0 */
 2276 0482 CF91      		pop r28
 2277 0484 1F91      		pop r17
 2278 0486 0F91      		pop r16
 2279 0488 FF90      		pop r15
 2280 048a EF90      		pop r14
 2281 048c DF90      		pop r13
 2282 048e CF90      		pop r12
 2283 0490 BF90      		pop r11
 2284 0492 0895      		ret
 2285               	/* epilogue end (size=9) */
 2286               	/* function LCD_write_english size 55 (38) */
 2287               	.LFE9:
 2289               	.global	LCD_SetCursor
 2291               	LCD_SetCursor:
 2292               	.LFB13:
 2293               	.LM133:
 2294               	/* prologue: frame size=0 */
 2295 0494 0F93      		push r16
 2296 0496 1F93      		push r17
 2297               	/* prologue end (size=2) */
 2298 0498 8B01      		movw r16,r22
 2299               	.LM134:
 2300 049a BC01      		movw r22,r24
 2301 049c 80E2      		ldi r24,lo8(32)
 2302 049e 90E0      		ldi r25,hi8(32)
 2303 04a0 0E94 0000 		call LCD_WR_REG
 2304               	.LM135:
 2305 04a4 B801      		movw r22,r16
 2306 04a6 81E2      		ldi r24,lo8(33)
 2307 04a8 90E0      		ldi r25,hi8(33)
 2308 04aa 0E94 0000 		call LCD_WR_REG
 2309               	/* epilogue: frame size=0 */
 2310 04ae 1F91      		pop r17
 2311 04b0 0F91      		pop r16
 2312 04b2 0895      		ret
 2313               	/* epilogue end (size=3) */
 2314               	/* function LCD_SetCursor size 16 (11) */
 2315               	.LFE13:
 2317               	.global	Lcd_SetBox
 2319               	Lcd_SetBox:
 2320               	.LFB12:
 2321               	.LM136:
 2322               	/* prologue: frame size=0 */
 2323 04b4 AF92      		push r10
 2324 04b6 BF92      		push r11
 2325 04b8 CF92      		push r12
 2326 04ba DF92      		push r13
 2327 04bc EF92      		push r14
 2328 04be FF92      		push r15
 2329 04c0 0F93      		push r16
 2330 04c2 1F93      		push r17
 2331               	/* prologue end (size=8) */
 2332 04c4 8C01      		movw r16,r24
 2333 04c6 5B01      		movw r10,r22
 2334 04c8 6A01      		movw r12,r20
 2335 04ca 7901      		movw r14,r18
 2336               	.LM137:
 2337 04cc E61A      		sub r14,r22
 2338 04ce F70A      		sbc r15,r23
 2339 04d0 87E3      		ldi r24,lo8(311)
 2340 04d2 91E0      		ldi r25,hi8(311)
 2341 04d4 E80E      		add r14,r24
 2342 04d6 F91E      		adc r15,r25
 2343 04d8 B701      		movw r22,r14
 2344 04da C801      		movw r24,r16
 2345 04dc 0E94 0000 		call LCD_SetCursor
 2346               	.LM138:
 2347 04e0 B801      		movw r22,r16
 2348 04e2 80E5      		ldi r24,lo8(80)
 2349 04e4 90E0      		ldi r25,hi8(80)
 2350 04e6 0E94 0000 		call LCD_WR_REG
 2351               	.LM139:
 2352 04ea 0C0D      		add r16,r12
 2353 04ec 1D1D      		adc r17,r13
 2354 04ee 0150      		subi r16,lo8(-(-1))
 2355 04f0 1040      		sbci r17,hi8(-(-1))
 2356 04f2 B801      		movw r22,r16
 2357 04f4 81E5      		ldi r24,lo8(81)
 2358 04f6 90E0      		ldi r25,hi8(81)
 2359 04f8 0E94 0000 		call LCD_WR_REG
 2360               	.LM140:
 2361 04fc 88E3      		ldi r24,lo8(312)
 2362 04fe 91E0      		ldi r25,hi8(312)
 2363 0500 8A19      		sub r24,r10
 2364 0502 9B09      		sbc r25,r11
 2365 0504 BC01      		movw r22,r24
 2366 0506 82E5      		ldi r24,lo8(82)
 2367 0508 90E0      		ldi r25,hi8(82)
 2368 050a 0E94 0000 		call LCD_WR_REG
 2369               	.LM141:
 2370 050e B701      		movw r22,r14
 2371 0510 83E5      		ldi r24,lo8(83)
 2372 0512 90E0      		ldi r25,hi8(83)
 2373 0514 0E94 0000 		call LCD_WR_REG
 2374               	/* epilogue: frame size=0 */
 2375 0518 1F91      		pop r17
 2376 051a 0F91      		pop r16
 2377 051c FF90      		pop r15
 2378 051e EF90      		pop r14
 2379 0520 DF90      		pop r13
 2380 0522 CF90      		pop r12
 2381 0524 BF90      		pop r11
 2382 0526 AF90      		pop r10
 2383 0528 0895      		ret
 2384               	/* epilogue end (size=9) */
 2385               	/* function Lcd_SetBox size 59 (42) */
 2386               	.LFE12:
 2388               	.global	LCD_write_SUM
 2390               	LCD_write_SUM:
 2391               	.LFB11:
 2392               	.LM142:
 2393               	/* prologue: frame size=0 */
 2394 052a BF92      		push r11
 2395 052c CF92      		push r12
 2396 052e DF92      		push r13
 2397 0530 EF92      		push r14
 2398 0532 FF92      		push r15
 2399 0534 0F93      		push r16
 2400 0536 1F93      		push r17
 2401 0538 CF93      		push r28
 2402               	/* prologue end (size=8) */
 2403 053a FB01      		movw r30,r22
 2404 053c B42E      		mov r11,r20
 2405 053e 6901      		movw r12,r18
 2406 0540 7801      		movw r14,r16
 2407               	.LM143:
 2408 0542 28E0      		ldi r18,lo8(8)
 2409 0544 30E0      		ldi r19,hi8(8)
 2410 0546 4FE0      		ldi r20,lo8(15)
 2411 0548 50E0      		ldi r21,hi8(15)
 2412 054a BC01      		movw r22,r24
 2413 054c CF01      		movw r24,r30
 2414 054e 0E94 0000 		call Lcd_SetBox
 2415               	.LM144:
 2416 0552 82E2      		ldi r24,lo8(34)
 2417 0554 90E0      		ldi r25,hi8(34)
 2418 0556 0E94 0000 		call LCD_WR_REG16
 2419               	.LM145:
 2420 055a 00E0      		ldi r16,lo8(0)
 2421               	.L50:
 2422               	.LBB3:
 2423               	.LM146:
 2424 055c EB2D      		mov r30,r11
 2425 055e FF27      		clr r31
 2426 0560 44E0      		ldi r20,4
 2427 0562 EE0F      	1:	lsl r30
 2428 0564 FF1F      		rol r31
 2429 0566 4A95      		dec r20
 2430 0568 E1F7      		brne 1b
 2431 056a E00F      		add r30,r16
 2432 056c F11D      		adc r31,__zero_reg__
 2433 056e E050      		subi r30,lo8(-(english+256))
 2434 0570 F040      		sbci r31,hi8(-(english+256))
 2435               	/* #APP */
 2436 0572 C491      		lpm r28, Z
 2437               		
 2438               	/* #NOAPP */
 2439 0574 17E0      		ldi r17,lo8(7)
 2440               	.L49:
 2441               	.LBE3:
 2442               	.LM147:
 2443 0576 C7FF      		sbrs r28,7
 2444 0578 02C0      		rjmp .L47
 2445 057a C601      		movw r24,r12
 2446 057c 01C0      		rjmp .L55
 2447               	.L47:
 2448               	.LM148:
 2449 057e C701      		movw r24,r14
 2450               	.L55:
 2451 0580 0E94 0000 		call LCD_WR_DATA16
 2452               	.LM149:
 2453 0584 CC0F      		lsl r28
 2454               	.LM150:
 2455 0586 1150      		subi r17,lo8(-(-1))
 2456 0588 17FF      		sbrs r17,7
 2457 058a F5CF      		rjmp .L49
 2458               	.LM151:
 2459 058c 0F5F      		subi r16,lo8(-(1))
 2460 058e 0031      		cpi r16,lo8(16)
 2461 0590 28F3      		brlo .L50
 2462               	/* epilogue: frame size=0 */
 2463 0592 CF91      		pop r28
 2464 0594 1F91      		pop r17
 2465 0596 0F91      		pop r16
 2466 0598 FF90      		pop r15
 2467 059a EF90      		pop r14
 2468 059c DF90      		pop r13
 2469 059e CF90      		pop r12
 2470 05a0 BF90      		pop r11
 2471 05a2 0895      		ret
 2472               	/* epilogue end (size=9) */
 2473               	/* function LCD_write_SUM size 64 (47) */
 2474               	.LFE11:
 2476               	.global	LCD_write_english_string
 2478               	LCD_write_english_string:
 2479               	.LFB10:
 2480               	.LM152:
 2481               	/* prologue: frame size=0 */
 2482 05a4 AF92      		push r10
 2483 05a6 BF92      		push r11
 2484 05a8 CF92      		push r12
 2485 05aa DF92      		push r13
 2486 05ac EF92      		push r14
 2487 05ae FF92      		push r15
 2488 05b0 0F93      		push r16
 2489 05b2 1F93      		push r17
 2490 05b4 CF93      		push r28
 2491 05b6 DF93      		push r29
 2492               	/* prologue end (size=10) */
 2493 05b8 FC01      		movw r30,r24
 2494 05ba 5B01      		movw r10,r22
 2495 05bc 7A01      		movw r14,r20
 2496 05be 6901      		movw r12,r18
 2497               	.LM153:
 2498 05c0 DA01      		movw r26,r20
 2499 05c2 8C91      		ld r24,X
 2500 05c4 8823      		tst r24
 2501 05c6 A9F0      		breq .L61
 2502 05c8 EF01      		movw r28,r30
 2503               	.L59:
 2504               	.LM154:
 2505 05ca 28E0      		ldi r18,lo8(8)
 2506 05cc 30E0      		ldi r19,hi8(8)
 2507 05ce 4FE0      		ldi r20,lo8(15)
 2508 05d0 50E0      		ldi r21,hi8(15)
 2509 05d2 BE01      		movw r22,r28
 2510 05d4 C501      		movw r24,r10
 2511 05d6 0E94 0000 		call Lcd_SetBox
 2512               	.LM155:
 2513 05da A801      		movw r20,r16
 2514 05dc B601      		movw r22,r12
 2515 05de F701      		movw r30,r14
 2516 05e0 8191      		ld r24,Z+
 2517 05e2 7F01      		movw r14,r30
 2518 05e4 0E94 0000 		call LCD_write_english
 2519 05e8 2896      		adiw r28,8
 2520               	.LM156:
 2521 05ea D701      		movw r26,r14
 2522 05ec 8C91      		ld r24,X
 2523 05ee 8823      		tst r24
 2524 05f0 61F7      		brne .L59
 2525               	.L61:
 2526               	/* epilogue: frame size=0 */
 2527 05f2 DF91      		pop r29
 2528 05f4 CF91      		pop r28
 2529 05f6 1F91      		pop r17
 2530 05f8 0F91      		pop r16
 2531 05fa FF90      		pop r15
 2532 05fc EF90      		pop r14
 2533 05fe DF90      		pop r13
 2534 0600 CF90      		pop r12
 2535 0602 BF90      		pop r11
 2536 0604 AF90      		pop r10
 2537 0606 0895      		ret
 2538               	/* epilogue end (size=11) */
 2539               	/* function LCD_write_english_string size 50 (29) */
 2540               	.LFE10:
 2542               	.global	GUI_Point
 2544               	GUI_Point:
 2545               	.LFB14:
 2546               	.LM157:
 2547               	/* prologue: frame size=0 */
 2548 0608 EF92      		push r14
 2549 060a FF92      		push r15
 2550 060c 0F93      		push r16
 2551 060e 1F93      		push r17
 2552               	/* prologue end (size=4) */
 2553 0610 8B01      		movw r16,r22
 2554 0612 7A01      		movw r14,r20
 2555               	.LM158:
 2556 0614 BC01      		movw r22,r24
 2557 0616 80E2      		ldi r24,lo8(32)
 2558 0618 90E0      		ldi r25,hi8(32)
 2559 061a 0E94 0000 		call LCD_WR_REG
 2560               	.LM159:
 2561 061e B801      		movw r22,r16
 2562 0620 81E2      		ldi r24,lo8(33)
 2563 0622 90E0      		ldi r25,hi8(33)
 2564 0624 0E94 0000 		call LCD_WR_REG
 2565               	.LM160:
 2566 0628 82E2      		ldi r24,lo8(34)
 2567 062a 90E0      		ldi r25,hi8(34)
 2568 062c 0E94 0000 		call LCD_WR_REG16
 2569               	.LM161:
 2570 0630 C701      		movw r24,r14
 2571 0632 0E94 0000 		call LCD_WR_DATA16
 2572               	/* epilogue: frame size=0 */
 2573 0636 1F91      		pop r17
 2574 0638 0F91      		pop r16
 2575 063a FF90      		pop r15
 2576 063c EF90      		pop r14
 2577 063e 0895      		ret
 2578               	/* epilogue end (size=5) */
 2579               	/* function GUI_Point size 28 (19) */
 2580               	.LFE14:
 2582               	.global	Test
 2584               	Test:
 2585               	.LFB15:
 2586               	.LM162:
 2587               	/* prologue: frame size=0 */
 2588 0640 AF92      		push r10
 2589 0642 BF92      		push r11
 2590 0644 CF92      		push r12
 2591 0646 DF92      		push r13
 2592 0648 EF92      		push r14
 2593 064a FF92      		push r15
 2594 064c 0F93      		push r16
 2595 064e 1F93      		push r17
 2596               	/* prologue end (size=8) */
 2597               	.LM163:
 2598 0650 60E0      		ldi r22,lo8(0)
 2599 0652 70E0      		ldi r23,hi8(0)
 2600 0654 80E2      		ldi r24,lo8(32)
 2601 0656 90E0      		ldi r25,hi8(32)
 2602 0658 0E94 0000 		call LCD_WR_REG
 2603               	.LM164:
 2604 065c 60E0      		ldi r22,lo8(0)
 2605 065e 70E0      		ldi r23,hi8(0)
 2606 0660 81E2      		ldi r24,lo8(33)
 2607 0662 90E0      		ldi r25,hi8(33)
 2608 0664 0E94 0000 		call LCD_WR_REG
 2609               	.LM165:
 2610 0668 EE24      		clr r14
 2611 066a FF24      		clr r15
 2612 066c 8701      		movw r16,r14
 2613               	.L78:
 2614               	.LM166:
 2615 066e 60E0      		ldi r22,lo8(0)
 2616 0670 70E0      		ldi r23,hi8(0)
 2617 0672 80E5      		ldi r24,lo8(80)
 2618 0674 90E0      		ldi r25,hi8(80)
 2619 0676 0E94 0000 		call LCD_WR_REG
 2620               	.LM167:
 2621 067a 6FEE      		ldi r22,lo8(239)
 2622 067c 70E0      		ldi r23,hi8(239)
 2623 067e 81E5      		ldi r24,lo8(81)
 2624 0680 90E0      		ldi r25,hi8(81)
 2625 0682 0E94 0000 		call LCD_WR_REG
 2626               	.LM168:
 2627 0686 60E0      		ldi r22,lo8(0)
 2628 0688 70E0      		ldi r23,hi8(0)
 2629 068a 82E5      		ldi r24,lo8(82)
 2630 068c 90E0      		ldi r25,hi8(82)
 2631 068e 0E94 0000 		call LCD_WR_REG
 2632               	.LM169:
 2633 0692 6FE3      		ldi r22,lo8(319)
 2634 0694 71E0      		ldi r23,hi8(319)
 2635 0696 83E5      		ldi r24,lo8(83)
 2636 0698 90E0      		ldi r25,hi8(83)
 2637 069a 0E94 0000 		call LCD_WR_REG
 2638               	.LM170:
 2639 069e 82E2      		ldi r24,lo8(34)
 2640 06a0 90E0      		ldi r25,hi8(34)
 2641 06a2 0E94 0000 		call LCD_WR_REG16
 2642 06a6 5FEF      		ldi r21,lo8(76799)
 2643 06a8 A52E      		mov r10,r21
 2644 06aa 5BE2      		ldi r21,hi8(76799)
 2645 06ac B52E      		mov r11,r21
 2646 06ae 51E0      		ldi r21,hlo8(76799)
 2647 06b0 C52E      		mov r12,r21
 2648 06b2 D12C      		mov r13,__zero_reg__
 2649               	.L77:
 2650               	.LM171:
 2651 06b4 E114      		cp r14,__zero_reg__
 2652 06b6 F104      		cpc r15,__zero_reg__
 2653 06b8 0105      		cpc r16,__zero_reg__
 2654 06ba 1105      		cpc r17,__zero_reg__
 2655 06bc 21F4      		brne .L70
 2656 06be 8FE1      		ldi r24,lo8(31)
 2657 06c0 90E0      		ldi r25,hi8(31)
 2658 06c2 0E94 0000 		call LCD_WR_DATA16
 2659               	.L70:
 2660               	.LM172:
 2661 06c6 81E0      		ldi r24,lo8(1)
 2662 06c8 E816      		cp r14,r24
 2663 06ca F104      		cpc r15,__zero_reg__
 2664 06cc 0105      		cpc r16,__zero_reg__
 2665 06ce 1105      		cpc r17,__zero_reg__
 2666 06d0 21F4      		brne .L71
 2667 06d2 80E0      		ldi r24,lo8(-2048)
 2668 06d4 98EF      		ldi r25,hi8(-2048)
 2669 06d6 0E94 0000 		call LCD_WR_DATA16
 2670               	.L71:
 2671               	.LM173:
 2672 06da 82E0      		ldi r24,lo8(2)
 2673 06dc E816      		cp r14,r24
 2674 06de F104      		cpc r15,__zero_reg__
 2675 06e0 0105      		cpc r16,__zero_reg__
 2676 06e2 1105      		cpc r17,__zero_reg__
 2677 06e4 21F4      		brne .L72
 2678 06e6 80EE      		ldi r24,lo8(2016)
 2679 06e8 97E0      		ldi r25,hi8(2016)
 2680 06ea 0E94 0000 		call LCD_WR_DATA16
 2681               	.L72:
 2682               	.LM174:
 2683 06ee 83E0      		ldi r24,lo8(3)
 2684 06f0 E816      		cp r14,r24
 2685 06f2 F104      		cpc r15,__zero_reg__
 2686 06f4 0105      		cpc r16,__zero_reg__
 2687 06f6 1105      		cpc r17,__zero_reg__
 2688 06f8 21F4      		brne .L73
 2689 06fa 8FEF      		ldi r24,lo8(2047)
 2690 06fc 97E0      		ldi r25,hi8(2047)
 2691 06fe 0E94 0000 		call LCD_WR_DATA16
 2692               	.L73:
 2693               	.LM175:
 2694 0702 84E0      		ldi r24,lo8(4)
 2695 0704 E816      		cp r14,r24
 2696 0706 F104      		cpc r15,__zero_reg__
 2697 0708 0105      		cpc r16,__zero_reg__
 2698 070a 1105      		cpc r17,__zero_reg__
 2699 070c 21F4      		brne .L74
 2700 070e 8FE1      		ldi r24,lo8(-2017)
 2701 0710 98EF      		ldi r25,hi8(-2017)
 2702 0712 0E94 0000 		call LCD_WR_DATA16
 2703               	.L74:
 2704               	.LM176:
 2705 0716 85E0      		ldi r24,lo8(5)
 2706 0718 E816      		cp r14,r24
 2707 071a F104      		cpc r15,__zero_reg__
 2708 071c 0105      		cpc r16,__zero_reg__
 2709 071e 1105      		cpc r17,__zero_reg__
 2710 0720 21F4      		brne .L75
 2711 0722 80EE      		ldi r24,lo8(-32)
 2712 0724 9FEF      		ldi r25,hi8(-32)
 2713 0726 0E94 0000 		call LCD_WR_DATA16
 2714               	.L75:
 2715               	.LM177:
 2716 072a 86E0      		ldi r24,lo8(6)
 2717 072c E816      		cp r14,r24
 2718 072e F104      		cpc r15,__zero_reg__
 2719 0730 0105      		cpc r16,__zero_reg__
 2720 0732 1105      		cpc r17,__zero_reg__
 2721 0734 21F4      		brne .L69
 2722 0736 80E0      		ldi r24,lo8(0)
 2723 0738 90E0      		ldi r25,hi8(0)
 2724 073a 0E94 0000 		call LCD_WR_DATA16
 2725               	.L69:
 2726               	.LM178:
 2727 073e 0894      		sec
 2728 0740 A108      		sbc r10,__zero_reg__
 2729 0742 B108      		sbc r11,__zero_reg__
 2730 0744 C108      		sbc r12,__zero_reg__
 2731 0746 D108      		sbc r13,__zero_reg__
 2732 0748 D7FE      		sbrs r13,7
 2733 074a B4CF      		rjmp .L77
 2734               	.LM179:
 2735 074c 84E6      		ldi r24,lo8(100)
 2736 074e 90E0      		ldi r25,hi8(100)
 2737 0750 0E94 0000 		call delay_ms
 2738               	.LM180:
 2739 0754 0894      		sec
 2740 0756 E11C      		adc r14,__zero_reg__
 2741 0758 F11C      		adc r15,__zero_reg__
 2742 075a 011D      		adc r16,__zero_reg__
 2743 075c 111D      		adc r17,__zero_reg__
 2744 075e 87E0      		ldi r24,lo8(7)
 2745 0760 E816      		cp r14,r24
 2746 0762 F104      		cpc r15,__zero_reg__
 2747 0764 0105      		cpc r16,__zero_reg__
 2748 0766 1105      		cpc r17,__zero_reg__
 2749 0768 08F4      		brsh .+2
 2750 076a 81CF      		rjmp .L78
 2751               	/* epilogue: frame size=0 */
 2752 076c 1F91      		pop r17
 2753 076e 0F91      		pop r16
 2754 0770 FF90      		pop r15
 2755 0772 EF90      		pop r14
 2756 0774 DF90      		pop r13
 2757 0776 CF90      		pop r12
 2758 0778 BF90      		pop r11
 2759 077a AF90      		pop r10
 2760 077c 0895      		ret
 2761               	/* epilogue end (size=9) */
 2762               	/* function Test size 159 (142) */
 2763               	.LFE15:
 2765               	.global	Init_INT0
 2767               	Init_INT0:
 2768               	.LFB16:
 2769               	.LM181:
 2770               	/* prologue: frame size=0 */
 2771               	/* prologue end (size=0) */
 2772               	.LM182:
 2773 077e 8FB7      		in r24,95-0x20
 2774 0780 8068      		ori r24,lo8(-128)
 2775 0782 8FBF      		out 95-0x20,r24
 2776               	.LM183:
 2777 0784 85B7      		in r24,85-0x20
 2778 0786 8260      		ori r24,lo8(2)
 2779 0788 85BF      		out 85-0x20,r24
 2780               	.LM184:
 2781 078a 80E4      		ldi r24,lo8(64)
 2782 078c 8BBF      		out 91-0x20,r24
 2783               	/* epilogue: frame size=0 */
 2784 078e 0895      		ret
 2785               	/* epilogue end (size=1) */
 2786               	/* function Init_INT0 size 9 (8) */
 2787               	.LFE16:
 2789               	.global	__vector_1
 2791               	__vector_1:
 2792               	.LFB17:
 2793               	.LM185:
 2794               	/* prologue: frame size=0 */
 2795 0790 1F92      		push __zero_reg__
 2796 0792 0F92      		push __tmp_reg__
 2797 0794 0FB6      		in __tmp_reg__,__SREG__
 2798 0796 0F92      		push __tmp_reg__
 2799 0798 1124      		clr __zero_reg__
 2800 079a 2F93      		push r18
 2801 079c 3F93      		push r19
 2802 079e 4F93      		push r20
 2803 07a0 5F93      		push r21
 2804 07a2 6F93      		push r22
 2805 07a4 7F93      		push r23
 2806 07a6 8F93      		push r24
 2807 07a8 9F93      		push r25
 2808 07aa AF93      		push r26
 2809 07ac BF93      		push r27
 2810 07ae EF93      		push r30
 2811 07b0 FF93      		push r31
 2812               	/* prologue end (size=17) */
 2813               	.LM186:
 2814               	/* #APP */
 2815 07b2 F894      		cli
 2816               	.LM187:
 2817               	/* #NOAPP */
 2818 07b4 C098      		cbi 56-0x20,0
 2819               	.LM188:
 2820 07b6 969A      		sbi 50-0x20,6
 2821               	.LM189:
 2822 07b8 8FEF      		ldi r24,lo8(-1)
 2823 07ba 84BB      		out 52-0x20,r24
 2824               	.LM190:
 2825 07bc 60E0      		ldi r22,lo8(0)
 2826 07be 70E0      		ldi r23,hi8(0)
 2827 07c0 80E2      		ldi r24,lo8(32)
 2828 07c2 90E0      		ldi r25,hi8(32)
 2829 07c4 0E94 0000 		call LCD_WR_REG
 2830               	.LM191:
 2831 07c8 60E0      		ldi r22,lo8(0)
 2832 07ca 70E0      		ldi r23,hi8(0)
 2833 07cc 81E2      		ldi r24,lo8(33)
 2834 07ce 90E0      		ldi r25,hi8(33)
 2835 07d0 0E94 0000 		call LCD_WR_REG
 2836               	.LM192:
 2837 07d4 60E0      		ldi r22,lo8(0)
 2838 07d6 70E0      		ldi r23,hi8(0)
 2839 07d8 80E5      		ldi r24,lo8(80)
 2840 07da 90E0      		ldi r25,hi8(80)
 2841 07dc 0E94 0000 		call LCD_WR_REG
 2842               	.LM193:
 2843 07e0 6FEE      		ldi r22,lo8(239)
 2844 07e2 70E0      		ldi r23,hi8(239)
 2845 07e4 81E5      		ldi r24,lo8(81)
 2846 07e6 90E0      		ldi r25,hi8(81)
 2847 07e8 0E94 0000 		call LCD_WR_REG
 2848               	.LM194:
 2849 07ec 60E0      		ldi r22,lo8(0)
 2850 07ee 70E0      		ldi r23,hi8(0)
 2851 07f0 82E5      		ldi r24,lo8(82)
 2852 07f2 90E0      		ldi r25,hi8(82)
 2853 07f4 0E94 0000 		call LCD_WR_REG
 2854               	.LM195:
 2855 07f8 6FE3      		ldi r22,lo8(319)
 2856 07fa 71E0      		ldi r23,hi8(319)
 2857 07fc 83E5      		ldi r24,lo8(83)
 2858 07fe 90E0      		ldi r25,hi8(83)
 2859 0800 0E94 0000 		call LCD_WR_REG
 2860               	.LM196:
 2861 0804 68E2      		ldi r22,lo8(4136)
 2862 0806 70E1      		ldi r23,hi8(4136)
 2863 0808 83E0      		ldi r24,lo8(3)
 2864 080a 90E0      		ldi r25,hi8(3)
 2865 080c 0E94 0000 		call LCD_WR_REG
 2866               	.LM197:
 2867 0810 82E2      		ldi r24,lo8(34)
 2868 0812 90E0      		ldi r25,hi8(34)
 2869 0814 0E94 0000 		call LCD_WR_REG16
 2870               	.LM198:
 2871 0818 DD98      		cbi 59-0x20,5
 2872               	.LM199:
 2873 081a 14BA      		out 52-0x20,__zero_reg__
 2874               	.LM200:
 2875 081c DE9A      		sbi 59-0x20,6
 2876               	.LM201:
 2877 081e C39A      		sbi 56-0x20,3
 2878               	.LM202:
 2879 0820 C09A      		sbi 56-0x20,0
 2880               	.LM203:
 2881 0822 9698      		cbi 50-0x20,6
 2882               	.LM204:
 2883               	/* #APP */
 2884 0824 7894      		sei
 2885               	/* #NOAPP */
 2886               	/* epilogue: frame size=0 */
 2887 0826 FF91      		pop r31
 2888 0828 EF91      		pop r30
 2889 082a BF91      		pop r27
 2890 082c AF91      		pop r26
 2891 082e 9F91      		pop r25
 2892 0830 8F91      		pop r24
 2893 0832 7F91      		pop r23
 2894 0834 6F91      		pop r22
 2895 0836 5F91      		pop r21
 2896 0838 4F91      		pop r20
 2897 083a 3F91      		pop r19
 2898 083c 2F91      		pop r18
 2899 083e 0F90      		pop __tmp_reg__
 2900 0840 0FBE      		out __SREG__,__tmp_reg__
 2901 0842 0F90      		pop __tmp_reg__
 2902 0844 1F90      		pop __zero_reg__
 2903 0846 1895      		reti
 2904               	/* epilogue end (size=17) */
 2905               	/* function __vector_1 size 94 (60) */
 2906               	.LFE17:
 2908               	.Letext0:
DEFINED SYMBOLS
                            *ABS*:00000000 int.c
C:\DOCUME~1\wangdong\LOCALS~1\Temp/cccZdaaa.s:3      *ABS*:0000003f __SREG__
C:\DOCUME~1\wangdong\LOCALS~1\Temp/cccZdaaa.s:4      *ABS*:0000003e __SP_H__
C:\DOCUME~1\wangdong\LOCALS~1\Temp/cccZdaaa.s:5      *ABS*:0000003d __SP_L__
C:\DOCUME~1\wangdong\LOCALS~1\Temp/cccZdaaa.s:6      *ABS*:00000000 __tmp_reg__
C:\DOCUME~1\wangdong\LOCALS~1\Temp/cccZdaaa.s:7      *ABS*:00000001 __zero_reg__
C:\DOCUME~1\wangdong\LOCALS~1\Temp/cccZdaaa.s:23     .bss:00000000 val1
C:\DOCUME~1\wangdong\LOCALS~1\Temp/cccZdaaa.s:29     .progmem.data:00000000 english
C:\DOCUME~1\wangdong\LOCALS~1\Temp/cccZdaaa.s:1553   .text:00000000 delay_us
C:\DOCUME~1\wangdong\LOCALS~1\Temp/cccZdaaa.s:1573   .text:0000000c delay_ms
C:\DOCUME~1\wangdong\LOCALS~1\Temp/cccZdaaa.s:1608   .text:00000034 LCD_WR_DATA16
C:\DOCUME~1\wangdong\LOCALS~1\Temp/cccZdaaa.s:1660   .text:00000070 LCD_WR_REG16
C:\DOCUME~1\wangdong\LOCALS~1\Temp/cccZdaaa.s:1716   .text:000000b4 LCD_WR_REG
C:\DOCUME~1\wangdong\LOCALS~1\Temp/cccZdaaa.s:1739   .text:000000ca LCD_Clear
C:\DOCUME~1\wangdong\LOCALS~1\Temp/cccZdaaa.s:1830   .text:00000150 LCD_Init
C:\DOCUME~1\wangdong\LOCALS~1\Temp/cccZdaaa.s:2212   .text:0000042c LCD_write_english
C:\DOCUME~1\wangdong\LOCALS~1\Temp/cccZdaaa.s:2291   .text:00000494 LCD_SetCursor
C:\DOCUME~1\wangdong\LOCALS~1\Temp/cccZdaaa.s:2319   .text:000004b4 Lcd_SetBox
C:\DOCUME~1\wangdong\LOCALS~1\Temp/cccZdaaa.s:2390   .text:0000052a LCD_write_SUM
C:\DOCUME~1\wangdong\LOCALS~1\Temp/cccZdaaa.s:2478   .text:000005a4 LCD_write_english_string
C:\DOCUME~1\wangdong\LOCALS~1\Temp/cccZdaaa.s:2544   .text:00000608 GUI_Point
C:\DOCUME~1\wangdong\LOCALS~1\Temp/cccZdaaa.s:2584   .text:00000640 Test
C:\DOCUME~1\wangdong\LOCALS~1\Temp/cccZdaaa.s:2767   .text:0000077e Init_INT0
C:\DOCUME~1\wangdong\LOCALS~1\Temp/cccZdaaa.s:2791   .text:00000790 __vector_1

UNDEFINED SYMBOLS
__do_copy_data
__do_clear_bss
